(dp1
V133
p2
(dp3
Vcity
p4
VTokyo
p5
sVaddr
p6
V374 William S Canning Blvd, Fall River MA 2721
p7
sVhastv
p8
Vtrue
p9
sVfood
p10
Vnorth american
p11
sVhasinternet
p12
Vtrue
p13
sVpricerange
p14
Vcheap
p15
sVdate
p16
Vtomorrow night
p17
sVtype
p18
Vpub
p19
ssV132
p20
(dp21
Vcity
p22
VLondon
p23
sVaddr
p24
V137 Teaticket Hwy, East Falmouth MA 2536
p25
sVhastv
p26
Vfalse
p27
sVfood
p28
Vindian
p29
sVhasinternet
p30
Vfalse
p31
sVpricerange
p32
Vexpensive
p33
sVdate
p34
Vtoday
p35
sVtype
p36
Vpub
p37
ssV131
p38
(dp39
Vcity
p40
VParis
p41
sVaddr
p42
V374 William S Canning Blvd, Fall River MA 2721
p43
sVhastv
p44
Vtrue
p45
sVfood
p46
Vgastropub
p47
sVhasinternet
p48
Vfalse
p49
sVpricerange
p50
Vdontcare
p51
sVdate
p52
Vtomorrow night
p53
sVtype
p54
Vcoffee shop
p55
ssV130
p56
(dp57
Vcity
p58
VMumbai
p59
sVaddr
p60
V777 Brockton Avenue, Abington MA 2351
p61
sVhastv
p62
Vfalse
p63
sVfood
p64
Vasian oriental
p65
sVhasinternet
p66
Vtrue
p67
sVpricerange
p68
Vdontcare
p69
sVdate
p70
Vtomorrow
p71
sVtype
p72
Vrestaurant
p73
ssV137
p74
(dp75
Vcity
p76
VTokyo
p77
sVaddr
p78
V30 Memorial Drive, Avon MA 2322
p79
sVhastv
p80
Vfalse
p81
sVfood
p82
Vmodern european
p83
sVhasinternet
p84
Vfalse
p85
sVpricerange
p86
Vmoderate
p87
sVdate
p88
Vtomorrow night
p89
sVtype
p90
Vcoffee shop
p91
ssV136
p92
(dp93
Vcity
p94
VLisbon
p95
sVaddr
p96
V777 Brockton Avenue, Abington MA 2351
p97
sVhastv
p98
Vfalse
p99
sVfood
p100
Vbritish
p101
sVhasinternet
p102
Vfalse
p103
sVpricerange
p104
Vexpensive
p105
sVdate
p106
Vtoday
p107
sVtype
p108
Vpub
p109
ssV135
p110
(dp111
Vcity
p112
VNew York
p113
sVaddr
p114
V30 Memorial Drive, Avon MA 2322
p115
sVhastv
p116
Vfalse
p117
sVfood
p118
Vturkish
p119
sVhasinternet
p120
Vtrue
p121
sVpricerange
p122
Vexpensive
p123
sVdate
p124
Vtoday
p125
sVtype
p126
Vpub
p127
ssV134
p128
(dp129
Vcity
p130
VParis
p131
sVaddr
p132
V250 Hartford Avenue, Bellingham MA 2019
p133
sVhastv
p134
Vtrue
p135
sVfood
p136
Vfrench
p137
sVhasinternet
p138
Vfalse
p139
sVpricerange
p140
Vmoderate
p141
sVdate
p142
Vtomorrow night
p143
sVtype
p144
Vpub
p145
ssV139
p146
(dp147
Vcity
p148
VMumbai
p149
sVaddr
p150
V374 William S Canning Blvd, Fall River MA 2721
p151
sVhastv
p152
Vtrue
p153
sVfood
p154
Vitalian
p155
sVhasinternet
p156
Vtrue
p157
sVpricerange
p158
Vdontcare
p159
sVdate
p160
Vtoday
p161
sVtype
p162
Vrestaurant
p163
ssV138
p164
(dp165
Vcity
p166
VLisbon
p167
sVaddr
p168
V374 William S Canning Blvd, Fall River MA 2721
p169
sVhastv
p170
Vfalse
p171
sVfood
p172
Vfrench
p173
sVhasinternet
p174
Vfalse
p175
sVpricerange
p176
Vexpensive
p177
sVdate
p178
Vtomorrow night
p179
sVtype
p180
Vrestaurant
p181
ssV24
p182
(dp183
Vcity
p184
VMumbai
p185
sVaddr
p186
V700 Oak Street, Brockton MA 2301
p187
sVhastv
p188
Vtrue
p189
sVfood
p190
Vchinese
p191
sVhasinternet
p192
Vtrue
p193
sVpricerange
p194
Vmoderate
p195
sVdate
p196
Vtomorrow
p197
sVtype
p198
Vpub
p199
ssV25
p200
(dp201
Vcity
p202
VNew York
p203
sVaddr
p204
V374 William S Canning Blvd, Fall River MA 2721
p205
sVhastv
p206
Vfalse
p207
sVfood
p208
Vturkish
p209
sVhasinternet
p210
Vfalse
p211
sVpricerange
p212
Vmoderate
p213
sVdate
p214
Vtomorrow night
p215
sVtype
p216
Vrestaurant
p217
ssV26
p218
(dp219
Vcity
p220
VParis
p221
sVaddr
p222
V55 Brooksby Village Way, Danvers MA 1923
p223
sVhastv
p224
Vtrue
p225
sVfood
p226
Vvietnamese
p227
sVhasinternet
p228
Vtrue
p229
sVpricerange
p230
Vcheap
p231
sVdate
p232
Vthis weekend
p233
sVtype
p234
Vrestaurant
p235
ssV27
p236
(dp237
Vcity
p238
VParis
p239
sVaddr
p240
V250 Hartford Avenue, Bellingham MA 2019
p241
sVhastv
p242
Vfalse
p243
sVfood
p244
Vvietnamese
p245
sVhasinternet
p246
Vfalse
p247
sVpricerange
p248
Vmoderate
p249
sVdate
p250
Vsunday
p251
sVtype
p252
Vcoffee shop
p253
ssV20
p254
(dp255
Vcity
p256
VLisbon
p257
sVaddr
p258
V591 Memorial Dr, Chicopee MA 1020
p259
sVhastv
p260
Vfalse
p261
sVfood
p262
Vvietnamese
p263
sVhasinternet
p264
Vtrue
p265
sVpricerange
p266
Vdontcare
p267
sVdate
p268
Vtoday
p269
sVtype
p270
Vcoffee shop
p271
ssV21
p272
(dp273
Vcity
p274
VLondon
p275
sVaddr
p276
V66-4 Parkhurst Rd, Chelmsford MA 1824
p277
sVhastv
p278
Vfalse
p279
sVfood
p280
Vitalian
p281
sVhasinternet
p282
Vfalse
p283
sVpricerange
p284
Vcheap
p285
sVdate
p286
Vtomorrow night
p287
sVtype
p288
Vpub
p289
ssV22
p290
(dp291
Vcity
p292
VMumbai
p293
sVaddr
p294
V137 Teaticket Hwy, East Falmouth MA 2536
p295
sVhastv
p296
Vtrue
p297
sVfood
p298
Vbritish
p299
sVhasinternet
p300
Vtrue
p301
sVpricerange
p302
Vcheap
p303
sVdate
p304
Vtoday
p305
sVtype
p306
Vpub
p307
ssV23
p308
(dp309
Vcity
p310
VParis
p311
sVaddr
p312
V66-4 Parkhurst Rd, Chelmsford MA 1824
p313
sVhastv
p314
Vtrue
p315
sVfood
p316
Vthai
p317
sVhasinternet
p318
Vfalse
p319
sVpricerange
p320
Vcheap
p321
sVdate
p322
Vtomorrow night
p323
sVtype
p324
Vrestaurant
p325
ssV28
p326
(dp327
Vcity
p328
VTokyo
p329
sVaddr
p330
V777 Brockton Avenue, Abington MA 2351
p331
sVhastv
p332
Vtrue
p333
sVfood
p334
Vseafood
p335
sVhasinternet
p336
Vfalse
p337
sVpricerange
p338
Vcheap
p339
sVdate
p340
Vthis weekend
p341
sVtype
p342
Vcoffee shop
p343
ssV29
p344
(dp345
Vcity
p346
VTokyo
p347
sVaddr
p348
V777 Brockton Avenue, Abington MA 2351
p349
sVhastv
p350
Vfalse
p351
sVfood
p352
Vitalian
p353
sVhasinternet
p354
Vfalse
p355
sVpricerange
p356
Vcheap
p357
sVdate
p358
Vtomorrow night
p359
sVtype
p360
Vcoffee shop
p361
ssV0
(dp362
Vcity
p363
VNew York
p364
sVaddr
p365
V374 William S Canning Blvd, Fall River MA 2721
p366
sVhastv
p367
Vtrue
p368
sVfood
p369
Vkorean
p370
sVhasinternet
p371
Vfalse
p372
sVpricerange
p373
Vdontcare
p374
sVdate
p375
Vtomorrow
p376
sVtype
p377
Vcoffee shop
p378
ssV4
(dp379
Vcity
p380
VLisbon
p381
sVaddr
p382
V591 Memorial Dr, Chicopee MA 1020
p383
sVhastv
p384
Vtrue
p385
sVfood
p386
Vmodern european
p387
sVhasinternet
p388
Vtrue
p389
sVpricerange
p390
Vcheap
p391
sVdate
p392
Vtoday
p393
sVtype
p394
Vcoffee shop
p395
ssV8
(dp396
Vcity
p397
VParis
p398
sVaddr
p399
V137 Teaticket Hwy, East Falmouth MA 2536
p400
sVhastv
p401
Vfalse
p402
sVfood
p403
Vitalian
p404
sVhasinternet
p405
Vfalse
p406
sVpricerange
p407
Vdontcare
p408
sVdate
p409
Vtonight
p410
sVtype
p411
Vcoffee shop
p412
ssV119
p413
(dp414
Vcity
p415
VParis
p416
sVaddr
p417
V137 Teaticket Hwy, East Falmouth MA 2536
p418
sVhastv
p419
Vtrue
p420
sVfood
p421
Vkorean
p422
sVhasinternet
p423
Vfalse
p424
sVpricerange
p425
Vmoderate
p426
sVdate
p427
Vsunday
p428
sVtype
p429
Vcoffee shop
p430
ssV120
p431
(dp432
Vcity
p433
VMumbai
p434
sVaddr
p435
V21 Worcester Rd, Framingham MA 1701
p436
sVhastv
p437
Vfalse
p438
sVfood
p439
Vportuguese
p440
sVhasinternet
p441
Vtrue
p442
sVpricerange
p443
Vcheap
p444
sVdate
p445
Vtomorrow
p446
sVtype
p447
Vpub
p448
ssV121
p449
(dp450
Vcity
p451
VTokyo
p452
sVaddr
p453
V30 Memorial Drive, Avon MA 2322
p454
sVhastv
p455
Vfalse
p456
sVfood
p457
Vchinese
p458
sVhasinternet
p459
Vfalse
p460
sVpricerange
p461
Vdontcare
p462
sVdate
p463
Vtoday
p464
sVtype
p465
Vcoffee shop
p466
ssV122
p467
(dp468
Vcity
p469
VTokyo
p470
sVaddr
p471
V66-4 Parkhurst Rd, Chelmsford MA 1824
p472
sVhastv
p473
Vfalse
p474
sVfood
p475
Vjapanese
p476
sVhasinternet
p477
Vfalse
p478
sVpricerange
p479
Vexpensive
p480
sVdate
p481
Vthis weekend
p482
sVtype
p483
Vpub
p484
ssV123
p485
(dp486
Vcity
p487
VParis
p488
sVaddr
p489
V250 Hartford Avenue, Bellingham MA 2019
p490
sVhastv
p491
Vfalse
p492
sVfood
p493
Vvietnamese
p494
sVhasinternet
p495
Vfalse
p496
sVpricerange
p497
Vcheap
p498
sVdate
p499
Vtomorrow night
p500
sVtype
p501
Vpub
p502
ssV124
p503
(dp504
Vcity
p505
VParis
p506
sVaddr
p507
V21 Worcester Rd, Framingham MA 1701
p508
sVhastv
p509
Vfalse
p510
sVfood
p511
Vportuguese
p512
sVhasinternet
p513
Vtrue
p514
sVpricerange
p515
Vcheap
p516
sVdate
p517
Vtonight
p518
sVtype
p519
Vcoffee shop
p520
ssV125
p521
(dp522
Vcity
p523
VNew York
p524
sVaddr
p525
V374 William S Canning Blvd, Fall River MA 2721
p526
sVhastv
p527
Vfalse
p528
sVfood
p529
Vfrench
p530
sVhasinternet
p531
Vfalse
p532
sVpricerange
p533
Vcheap
p534
sVdate
p535
Vtoday
p536
sVtype
p537
Vrestaurant
p538
ssV126
p539
(dp540
Vcity
p541
VTokyo
p542
sVaddr
p543
V374 William S Canning Blvd, Fall River MA 2721
p544
sVhastv
p545
Vfalse
p546
sVfood
p547
Vportuguese
p548
sVhasinternet
p549
Vtrue
p550
sVpricerange
p551
Vdontcare
p552
sVdate
p553
Vtomorrow
p554
sVtype
p555
Vrestaurant
p556
ssV127
p557
(dp558
Vcity
p559
VTokyo
p560
sVaddr
p561
V700 Oak Street, Brockton MA 2301
p562
sVhastv
p563
Vtrue
p564
sVfood
p565
Vnorth american
p566
sVhasinternet
p567
Vtrue
p568
sVpricerange
p569
Vcheap
p570
sVdate
p571
Vtoday
p572
sVtype
p573
Vcoffee shop
p574
ssV128
p575
(dp576
Vcity
p577
VMumbai
p578
sVaddr
p579
V700 Oak Street, Brockton MA 2301
p580
sVhastv
p581
Vtrue
p582
sVfood
p583
Vportuguese
p584
sVhasinternet
p585
Vtrue
p586
sVpricerange
p587
Vdontcare
p588
sVdate
p589
Vtoday
p590
sVtype
p591
Vpub
p592
ssV129
p593
(dp594
Vcity
p595
VTokyo
p596
sVaddr
p597
V591 Memorial Dr, Chicopee MA 1020
p598
sVhastv
p599
Vtrue
p600
sVfood
p601
Veuropean
p602
sVhasinternet
p603
Vfalse
p604
sVpricerange
p605
Vdontcare
p606
sVdate
p607
Vthis weekend
p608
sVtype
p609
Vrestaurant
p610
ssV118
p611
(dp612
Vcity
p613
VMumbai
p614
sVaddr
p615
V700 Oak Street, Brockton MA 2301
p616
sVhastv
p617
Vfalse
p618
sVfood
p619
Vturkish
p620
sVhasinternet
p621
Vtrue
p622
sVpricerange
p623
Vmoderate
p624
sVdate
p625
Vtomorrow night
p626
sVtype
p627
Vcoffee shop
p628
ssV59
p629
(dp630
Vcity
p631
VMumbai
p632
sVaddr
p633
V21 Worcester Rd, Framingham MA 1701
p634
sVhastv
p635
Vfalse
p636
sVfood
p637
Vthai
p638
sVhasinternet
p639
Vfalse
p640
sVpricerange
p641
Vmoderate
p642
sVdate
p643
Vtoday
p644
sVtype
p645
Vcoffee shop
p646
ssV58
p647
(dp648
Vcity
p649
VLisbon
p650
sVaddr
p651
V250 Hartford Avenue, Bellingham MA 2019
p652
sVhastv
p653
Vtrue
p654
sVfood
p655
Vkorean
p656
sVhasinternet
p657
Vfalse
p658
sVpricerange
p659
Vcheap
p660
sVdate
p661
Vtomorrow
p662
sVtype
p663
Vpub
p664
ssV55
p665
(dp666
Vcity
p667
VNew York
p668
sVaddr
p669
V250 Hartford Avenue, Bellingham MA 2019
p670
sVhastv
p671
Vfalse
p672
sVfood
p673
Vthai
p674
sVhasinternet
p675
Vfalse
p676
sVpricerange
p677
Vdontcare
p678
sVdate
p679
Vtonight
p680
sVtype
p681
Vpub
p682
ssV54
p683
(dp684
Vcity
p685
VNew York
p686
sVaddr
p687
V374 William S Canning Blvd, Fall River MA 2721
p688
sVhastv
p689
Vtrue
p690
sVfood
p691
Vthai
p692
sVhasinternet
p693
Vfalse
p694
sVpricerange
p695
Vmoderate
p696
sVdate
p697
Vtonight
p698
sVtype
p699
Vpub
p700
ssV57
p701
(dp702
Vcity
p703
VLisbon
p704
sVaddr
p705
V777 Brockton Avenue, Abington MA 2351
p706
sVhastv
p707
Vfalse
p708
sVfood
p709
Vkorean
p710
sVhasinternet
p711
Vfalse
p712
sVpricerange
p713
Vmoderate
p714
sVdate
p715
Vtoday
p716
sVtype
p717
Vcoffee shop
p718
ssV56
p719
(dp720
Vcity
p721
VTokyo
p722
sVaddr
p723
V66-4 Parkhurst Rd, Chelmsford MA 1824
p724
sVhastv
p725
Vfalse
p726
sVfood
p727
Vvietnamese
p728
sVhasinternet
p729
Vtrue
p730
sVpricerange
p731
Vcheap
p732
sVdate
p733
Vtoday
p734
sVtype
p735
Vcoffee shop
p736
ssV51
p737
(dp738
Vcity
p739
VTokyo
p740
sVaddr
p741
V55 Brooksby Village Way, Danvers MA 1923
p742
sVhastv
p743
Vtrue
p744
sVfood
p745
Vmodern european
p746
sVhasinternet
p747
Vtrue
p748
sVpricerange
p749
Vmoderate
p750
sVdate
p751
Vtoday
p752
sVtype
p753
Vrestaurant
p754
ssV50
p755
(dp756
Vcity
p757
VTokyo
p758
sVaddr
p759
V55 Brooksby Village Way, Danvers MA 1923
p760
sVhastv
p761
Vtrue
p762
sVfood
p763
Vmodern european
p764
sVhasinternet
p765
Vtrue
p766
sVpricerange
p767
Vmoderate
p768
sVdate
p769
Vtomorrow night
p770
sVtype
p771
Vpub
p772
ssV53
p773
(dp774
Vcity
p775
VMumbai
p776
sVaddr
p777
V137 Teaticket Hwy, East Falmouth MA 2536
p778
sVhastv
p779
Vfalse
p780
sVfood
p781
Vthai
p782
sVhasinternet
p783
Vtrue
p784
sVpricerange
p785
Vcheap
p786
sVdate
p787
Vtomorrow night
p788
sVtype
p789
Vpub
p790
ssV52
p791
(dp792
Vcity
p793
VParis
p794
sVaddr
p795
V250 Hartford Avenue, Bellingham MA 2019
p796
sVhastv
p797
Vtrue
p798
sVfood
p799
Vitalian
p800
sVhasinternet
p801
Vtrue
p802
sVpricerange
p803
Vmoderate
p804
sVdate
p805
Vtoday
p806
sVtype
p807
Vcoffee shop
p808
ssV115
p809
(dp810
Vcity
p811
VNew York
p812
sVaddr
p813
V55 Brooksby Village Way, Danvers MA 1923
p814
sVhastv
p815
Vtrue
p816
sVfood
p817
Vasian oriental
p818
sVhasinternet
p819
Vtrue
p820
sVpricerange
p821
Vdontcare
p822
sVdate
p823
Vtomorrow night
p824
sVtype
p825
Vrestaurant
p826
ssV114
p827
(dp828
Vcity
p829
VParis
p830
sVaddr
p831
V21 Worcester Rd, Framingham MA 1701
p832
sVhastv
p833
Vtrue
p834
sVfood
p835
Vitalian
p836
sVhasinternet
p837
Vfalse
p838
sVpricerange
p839
Vcheap
p840
sVdate
p841
Vtomorrow night
p842
sVtype
p843
Vpub
p844
ssV88
p845
(dp846
Vcity
p847
VParis
p848
sVaddr
p849
V250 Hartford Avenue, Bellingham MA 2019
p850
sVhastv
p851
Vtrue
p852
sVfood
p853
Vitalian
p854
sVhasinternet
p855
Vtrue
p856
sVpricerange
p857
Vdontcare
p858
sVdate
p859
Vthis weekend
p860
sVtype
p861
Vrestaurant
p862
ssV89
p863
(dp864
Vcity
p865
VTokyo
p866
sVaddr
p867
V30 Memorial Drive, Avon MA 2322
p868
sVhastv
p869
Vtrue
p870
sVfood
p871
Vportuguese
p872
sVhasinternet
p873
Vfalse
p874
sVpricerange
p875
Vexpensive
p876
sVdate
p877
Vtoday
p878
sVtype
p879
Vpub
p880
ssV111
p881
(dp882
Vcity
p883
VParis
p884
sVaddr
p885
V21 Worcester Rd, Framingham MA 1701
p886
sVhastv
p887
Vtrue
p888
sVfood
p889
Vportuguese
p890
sVhasinternet
p891
Vfalse
p892
sVpricerange
p893
Vdontcare
p894
sVdate
p895
Vtomorrow night
p896
sVtype
p897
Vrestaurant
p898
ssV110
p899
(dp900
Vcity
p901
VTokyo
p902
sVaddr
p903
V21 Worcester Rd, Framingham MA 1701
p904
sVhastv
p905
Vtrue
p906
sVfood
p907
Vthai
p908
sVhasinternet
p909
Vfalse
p910
sVpricerange
p911
Vdontcare
p912
sVdate
p913
Vtoday
p914
sVtype
p915
Vrestaurant
p916
ssV113
p917
(dp918
Vcity
p919
VParis
p920
sVaddr
p921
V777 Brockton Avenue, Abington MA 2351
p922
sVhastv
p923
Vfalse
p924
sVfood
p925
Vitalian
p926
sVhasinternet
p927
Vfalse
p928
sVpricerange
p929
Vmoderate
p930
sVdate
p931
Vtomorrow night
p932
sVtype
p933
Vcoffee shop
p934
ssV112
p935
(dp936
Vcity
p937
VNew York
p938
sVaddr
p939
V21 Worcester Rd, Framingham MA 1701
p940
sVhastv
p941
Vfalse
p942
sVfood
p943
Vasian oriental
p944
sVhasinternet
p945
Vfalse
p946
sVpricerange
p947
Vexpensive
p948
sVdate
p949
Vtoday
p950
sVtype
p951
Vrestaurant
p952
ssV82
p953
(dp954
Vcity
p955
VParis
p956
sVaddr
p957
V42 Fairhaven Commons Way, Fairhaven MA 2719
p958
sVhastv
p959
Vtrue
p960
sVfood
p961
Vmediterranean
p962
sVhasinternet
p963
Vtrue
p964
sVpricerange
p965
Vexpensive
p966
sVdate
p967
Vtomorrow night
p968
sVtype
p969
Vrestaurant
p970
ssV83
p971
(dp972
Vcity
p973
VNew York
p974
sVaddr
p975
V55 Brooksby Village Way, Danvers MA 1923
p976
sVhastv
p977
Vtrue
p978
sVfood
p979
Vthai
p980
sVhasinternet
p981
Vtrue
p982
sVpricerange
p983
Vdontcare
p984
sVdate
p985
Vtomorrow
p986
sVtype
p987
Vcoffee shop
p988
ssV80
p989
(dp990
Vcity
p991
VLondon
p992
sVaddr
p993
V250 Hartford Avenue, Bellingham MA 2019
p994
sVhastv
p995
Vtrue
p996
sVfood
p997
Vseafood
p998
sVhasinternet
p999
Vfalse
p1000
sVpricerange
p1001
Vexpensive
p1002
sVdate
p1003
Vtomorrow
p1004
sVtype
p1005
Vcoffee shop
p1006
ssV81
p1007
(dp1008
Vcity
p1009
VParis
p1010
sVaddr
p1011
V777 Brockton Avenue, Abington MA 2351
p1012
sVhastv
p1013
Vtrue
p1014
sVfood
p1015
Vmediterranean
p1016
sVhasinternet
p1017
Vtrue
p1018
sVpricerange
p1019
Vexpensive
p1020
sVdate
p1021
Vtomorrow night
p1022
sVtype
p1023
Vcoffee shop
p1024
ssV86
p1025
(dp1026
Vcity
p1027
VTokyo
p1028
sVaddr
p1029
V374 William S Canning Blvd, Fall River MA 2721
p1030
sVhastv
p1031
Vtrue
p1032
sVfood
p1033
Vitalian
p1034
sVhasinternet
p1035
Vfalse
p1036
sVpricerange
p1037
Vmoderate
p1038
sVdate
p1039
Vtomorrow night
p1040
sVtype
p1041
Vcoffee shop
p1042
ssV87
p1043
(dp1044
Vcity
p1045
VParis
p1046
sVaddr
p1047
V250 Hartford Avenue, Bellingham MA 2019
p1048
sVhastv
p1049
Vfalse
p1050
sVfood
p1051
Vspanish
p1052
sVhasinternet
p1053
Vfalse
p1054
sVpricerange
p1055
Vcheap
p1056
sVdate
p1057
Vtomorrow night
p1058
sVtype
p1059
Vpub
p1060
ssV84
p1061
(dp1062
Vcity
p1063
VMumbai
p1064
sVaddr
p1065
V374 William S Canning Blvd, Fall River MA 2721
p1066
sVhastv
p1067
Vfalse
p1068
sVfood
p1069
Vchinese
p1070
sVhasinternet
p1071
Vtrue
p1072
sVpricerange
p1073
Vmoderate
p1074
sVdate
p1075
Vtoday
p1076
sVtype
p1077
Vpub
p1078
ssV85
p1079
(dp1080
Vcity
p1081
VLisbon
p1082
sVaddr
p1083
V21 Worcester Rd, Framingham MA 1701
p1084
sVhastv
p1085
Vfalse
p1086
sVfood
p1087
Vthai
p1088
sVhasinternet
p1089
Vfalse
p1090
sVpricerange
p1091
Vcheap
p1092
sVdate
p1093
Vsunday
p1094
sVtype
p1095
Vcoffee shop
p1096
ssV3
(dp1097
Vcity
p1098
VTokyo
p1099
sVaddr
p1100
V66-4 Parkhurst Rd, Chelmsford MA 1824
p1101
sVhastv
p1102
Vtrue
p1103
sVfood
p1104
Vjapanese
p1105
sVhasinternet
p1106
Vfalse
p1107
sVpricerange
p1108
Vdontcare
p1109
sVdate
p1110
Vtonight
p1111
sVtype
p1112
Vrestaurant
p1113
ssV7
(dp1114
Vcity
p1115
VTokyo
p1116
sVaddr
p1117
V42 Fairhaven Commons Way, Fairhaven MA 2719
p1118
sVhastv
p1119
Vfalse
p1120
sVfood
p1121
Vchinese
p1122
sVhasinternet
p1123
Vtrue
p1124
sVpricerange
p1125
Vmoderate
p1126
sVdate
p1127
Vtoday
p1128
sVtype
p1129
Vrestaurant
p1130
ssV108
p1131
(dp1132
Vcity
p1133
VNew York
p1134
sVaddr
p1135
V55 Brooksby Village Way, Danvers MA 1923
p1136
sVhastv
p1137
Vtrue
p1138
sVfood
p1139
Vmediterranean
p1140
sVhasinternet
p1141
Vfalse
p1142
sVpricerange
p1143
Vcheap
p1144
sVdate
p1145
Vtomorrow night
p1146
sVtype
p1147
Vrestaurant
p1148
ssV109
p1149
(dp1150
Vcity
p1151
VTokyo
p1152
sVaddr
p1153
V374 William S Canning Blvd, Fall River MA 2721
p1154
sVhastv
p1155
Vtrue
p1156
sVfood
p1157
Vseafood
p1158
sVhasinternet
p1159
Vtrue
p1160
sVpricerange
p1161
Vcheap
p1162
sVdate
p1163
Vtonight
p1164
sVtype
p1165
Vcoffee shop
p1166
ssV102
p1167
(dp1168
Vcity
p1169
VTokyo
p1170
sVaddr
p1171
V591 Memorial Dr, Chicopee MA 1020
p1172
sVhastv
p1173
Vtrue
p1174
sVfood
p1175
Vmodern european
p1176
sVhasinternet
p1177
Vfalse
p1178
sVpricerange
p1179
Vmoderate
p1180
sVdate
p1181
Vtoday
p1182
sVtype
p1183
Vrestaurant
p1184
ssV103
p1185
(dp1186
Vcity
p1187
VLisbon
p1188
sVaddr
p1189
V250 Hartford Avenue, Bellingham MA 2019
p1190
sVhastv
p1191
Vtrue
p1192
sVfood
p1193
Vvietnamese
p1194
sVhasinternet
p1195
Vtrue
p1196
sVpricerange
p1197
Vdontcare
p1198
sVdate
p1199
Vtomorrow
p1200
sVtype
p1201
Vrestaurant
p1202
ssV100
p1203
(dp1204
Vcity
p1205
VMumbai
p1206
sVaddr
p1207
V42 Fairhaven Commons Way, Fairhaven MA 2719
p1208
sVhastv
p1209
Vtrue
p1210
sVfood
p1211
Vjapanese
p1212
sVhasinternet
p1213
Vtrue
p1214
sVpricerange
p1215
Vcheap
p1216
sVdate
p1217
Vtomorrow night
p1218
sVtype
p1219
Vcoffee shop
p1220
ssV101
p1221
(dp1222
Vcity
p1223
VNew York
p1224
sVaddr
p1225
V777 Brockton Avenue, Abington MA 2351
p1226
sVhastv
p1227
Vfalse
p1228
sVfood
p1229
Vgastropub
p1230
sVhasinternet
p1231
Vtrue
p1232
sVpricerange
p1233
Vdontcare
p1234
sVdate
p1235
Vtomorrow
p1236
sVtype
p1237
Vrestaurant
p1238
ssV106
p1239
(dp1240
Vcity
p1241
VLisbon
p1242
sVaddr
p1243
V55 Brooksby Village Way, Danvers MA 1923
p1244
sVhastv
p1245
Vtrue
p1246
sVfood
p1247
Vinternational
p1248
sVhasinternet
p1249
Vfalse
p1250
sVpricerange
p1251
Vmoderate
p1252
sVdate
p1253
Vthis weekend
p1254
sVtype
p1255
Vrestaurant
p1256
ssV107
p1257
(dp1258
Vcity
p1259
VLisbon
p1260
sVaddr
p1261
V66-4 Parkhurst Rd, Chelmsford MA 1824
p1262
sVhastv
p1263
Vfalse
p1264
sVfood
p1265
Vinternational
p1266
sVhasinternet
p1267
Vfalse
p1268
sVpricerange
p1269
Vcheap
p1270
sVdate
p1271
Vsunday
p1272
sVtype
p1273
Vpub
p1274
ssV104
p1275
(dp1276
Vcity
p1277
VMumbai
p1278
sVaddr
p1279
V374 William S Canning Blvd, Fall River MA 2721
p1280
sVhastv
p1281
Vtrue
p1282
sVfood
p1283
Vgastropub
p1284
sVhasinternet
p1285
Vfalse
p1286
sVpricerange
p1287
Vmoderate
p1288
sVdate
p1289
Vthis weekend
p1290
sVtype
p1291
Vpub
p1292
ssV105
p1293
(dp1294
Vcity
p1295
VNew York
p1296
sVaddr
p1297
V250 Hartford Avenue, Bellingham MA 2019
p1298
sVhastv
p1299
Vtrue
p1300
sVfood
p1301
Vasian oriental
p1302
sVhasinternet
p1303
Vtrue
p1304
sVpricerange
p1305
Vmoderate
p1306
sVdate
p1307
Vtomorrow night
p1308
sVtype
p1309
Vcoffee shop
p1310
ssV39
p1311
(dp1312
Vcity
p1313
VTokyo
p1314
sVaddr
p1315
V137 Teaticket Hwy, East Falmouth MA 2536
p1316
sVhastv
p1317
Vtrue
p1318
sVfood
p1319
Vasian oriental
p1320
sVhasinternet
p1321
Vfalse
p1322
sVpricerange
p1323
Vexpensive
p1324
sVdate
p1325
Vtonight
p1326
sVtype
p1327
Vcoffee shop
p1328
ssV38
p1329
(dp1330
Vcity
p1331
VMumbai
p1332
sVaddr
p1333
V55 Brooksby Village Way, Danvers MA 1923
p1334
sVhastv
p1335
Vfalse
p1336
sVfood
p1337
Vmexican
p1338
sVhasinternet
p1339
Vtrue
p1340
sVpricerange
p1341
Vdontcare
p1342
sVdate
p1343
Vsunday
p1344
sVtype
p1345
Vpub
p1346
ssV33
p1347
(dp1348
Vcity
p1349
VMumbai
p1350
sVaddr
p1351
V55 Brooksby Village Way, Danvers MA 1923
p1352
sVhastv
p1353
Vtrue
p1354
sVfood
p1355
Vafrican
p1356
sVhasinternet
p1357
Vfalse
p1358
sVpricerange
p1359
Vcheap
p1360
sVdate
p1361
Vthis weekend
p1362
sVtype
p1363
Vpub
p1364
ssV32
p1365
(dp1366
Vcity
p1367
VParis
p1368
sVaddr
p1369
V30 Memorial Drive, Avon MA 2322
p1370
sVhastv
p1371
Vfalse
p1372
sVfood
p1373
Veuropean
p1374
sVhasinternet
p1375
Vfalse
p1376
sVpricerange
p1377
Vcheap
p1378
sVdate
p1379
Vtomorrow
p1380
sVtype
p1381
Vpub
p1382
ssV31
p1383
(dp1384
Vcity
p1385
VLondon
p1386
sVaddr
p1387
V700 Oak Street, Brockton MA 2301
p1388
sVhastv
p1389
Vtrue
p1390
sVfood
p1391
Vchinese
p1392
sVhasinternet
p1393
Vfalse
p1394
sVpricerange
p1395
Vmoderate
p1396
sVdate
p1397
Vtonight
p1398
sVtype
p1399
Vcoffee shop
p1400
ssV30
p1401
(dp1402
Vcity
p1403
VLondon
p1404
sVaddr
p1405
V591 Memorial Dr, Chicopee MA 1020
p1406
sVhastv
p1407
Vfalse
p1408
sVfood
p1409
Vchinese
p1410
sVhasinternet
p1411
Vtrue
p1412
sVpricerange
p1413
Vmoderate
p1414
sVdate
p1415
Vtomorrow
p1416
sVtype
p1417
Vcoffee shop
p1418
ssV37
p1419
(dp1420
Vcity
p1421
VMumbai
p1422
sVaddr
p1423
V374 William S Canning Blvd, Fall River MA 2721
p1424
sVhastv
p1425
Vtrue
p1426
sVfood
p1427
Vitalian
p1428
sVhasinternet
p1429
Vfalse
p1430
sVpricerange
p1431
Vmoderate
p1432
sVdate
p1433
Vtomorrow night
p1434
sVtype
p1435
Vpub
p1436
ssV36
p1437
(dp1438
Vcity
p1439
VLisbon
p1440
sVaddr
p1441
V591 Memorial Dr, Chicopee MA 1020
p1442
sVhastv
p1443
Vfalse
p1444
sVfood
p1445
Vafrican
p1446
sVhasinternet
p1447
Vfalse
p1448
sVpricerange
p1449
Vmoderate
p1450
sVdate
p1451
Vtomorrow
p1452
sVtype
p1453
Vpub
p1454
ssV35
p1455
(dp1456
Vcity
p1457
VMumbai
p1458
sVaddr
p1459
V374 William S Canning Blvd, Fall River MA 2721
p1460
sVhastv
p1461
Vtrue
p1462
sVfood
p1463
Vgastropub
p1464
sVhasinternet
p1465
Vtrue
p1466
sVpricerange
p1467
Vmoderate
p1468
sVdate
p1469
Vtomorrow
p1470
sVtype
p1471
Vrestaurant
p1472
ssV34
p1473
(dp1474
Vcity
p1475
VTokyo
p1476
sVaddr
p1477
V42 Fairhaven Commons Way, Fairhaven MA 2719
p1478
sVhastv
p1479
Vfalse
p1480
sVfood
p1481
Vchinese
p1482
sVhasinternet
p1483
Vfalse
p1484
sVpricerange
p1485
Vmoderate
p1486
sVdate
p1487
Vtomorrow night
p1488
sVtype
p1489
Vrestaurant
p1490
ssV60
p1491
(dp1492
Vcity
p1493
VLondon
p1494
sVaddr
p1495
V55 Brooksby Village Way, Danvers MA 1923
p1496
sVhastv
p1497
Vtrue
p1498
sVfood
p1499
Vlebanese
p1500
sVhasinternet
p1501
Vtrue
p1502
sVpricerange
p1503
Vmoderate
p1504
sVdate
p1505
Vtonight
p1506
sVtype
p1507
Vpub
p1508
ssV61
p1509
(dp1510
Vcity
p1511
VLondon
p1512
sVaddr
p1513
V591 Memorial Dr, Chicopee MA 1020
p1514
sVhastv
p1515
Vfalse
p1516
sVfood
p1517
Vkorean
p1518
sVhasinternet
p1519
Vfalse
p1520
sVpricerange
p1521
Vmoderate
p1522
sVdate
p1523
Vtonight
p1524
sVtype
p1525
Vpub
p1526
ssV62
p1527
(dp1528
Vcity
p1529
VTokyo
p1530
sVaddr
p1531
V21 Worcester Rd, Framingham MA 1701
p1532
sVhastv
p1533
Vfalse
p1534
sVfood
p1535
Vthai
p1536
sVhasinternet
p1537
Vtrue
p1538
sVpricerange
p1539
Vdontcare
p1540
sVdate
p1541
Vthis weekend
p1542
sVtype
p1543
Vcoffee shop
p1544
ssV63
p1545
(dp1546
Vcity
p1547
VLondon
p1548
sVaddr
p1549
V591 Memorial Dr, Chicopee MA 1020
p1550
sVhastv
p1551
Vfalse
p1552
sVfood
p1553
Vchinese
p1554
sVhasinternet
p1555
Vfalse
p1556
sVpricerange
p1557
Vcheap
p1558
sVdate
p1559
Vtoday
p1560
sVtype
p1561
Vrestaurant
p1562
ssV64
p1563
(dp1564
Vcity
p1565
VLondon
p1566
sVaddr
p1567
V66-4 Parkhurst Rd, Chelmsford MA 1824
p1568
sVhastv
p1569
Vfalse
p1570
sVfood
p1571
Vchinese
p1572
sVhasinternet
p1573
Vfalse
p1574
sVpricerange
p1575
Vmoderate
p1576
sVdate
p1577
Vtonight
p1578
sVtype
p1579
Vcoffee shop
p1580
ssV65
p1581
(dp1582
Vcity
p1583
VLondon
p1584
sVaddr
p1585
V591 Memorial Dr, Chicopee MA 1020
p1586
sVhastv
p1587
Vfalse
p1588
sVfood
p1589
Vgastropub
p1590
sVhasinternet
p1591
Vfalse
p1592
sVpricerange
p1593
Vexpensive
p1594
sVdate
p1595
Vtomorrow night
p1596
sVtype
p1597
Vcoffee shop
p1598
ssV66
p1599
(dp1600
Vcity
p1601
VNew York
p1602
sVaddr
p1603
V55 Brooksby Village Way, Danvers MA 1923
p1604
sVhastv
p1605
Vtrue
p1606
sVfood
p1607
Vasian oriental
p1608
sVhasinternet
p1609
Vfalse
p1610
sVpricerange
p1611
Vmoderate
p1612
sVdate
p1613
Vtomorrow night
p1614
sVtype
p1615
Vcoffee shop
p1616
ssV67
p1617
(dp1618
Vcity
p1619
VTokyo
p1620
sVaddr
p1621
V250 Hartford Avenue, Bellingham MA 2019
p1622
sVhastv
p1623
Vfalse
p1624
sVfood
p1625
Vportuguese
p1626
sVhasinternet
p1627
Vfalse
p1628
sVpricerange
p1629
Vdontcare
p1630
sVdate
p1631
Vtomorrow
p1632
sVtype
p1633
Vrestaurant
p1634
ssV68
p1635
(dp1636
Vcity
p1637
VLondon
p1638
sVaddr
p1639
V777 Brockton Avenue, Abington MA 2351
p1640
sVhastv
p1641
Vfalse
p1642
sVfood
p1643
Vchinese
p1644
sVhasinternet
p1645
Vfalse
p1646
sVpricerange
p1647
Vcheap
p1648
sVdate
p1649
Vtonight
p1650
sVtype
p1651
Vcoffee shop
p1652
ssV69
p1653
(dp1654
Vcity
p1655
VLisbon
p1656
sVaddr
p1657
V777 Brockton Avenue, Abington MA 2351
p1658
sVhastv
p1659
Vfalse
p1660
sVfood
p1661
Vitalian
p1662
sVhasinternet
p1663
Vtrue
p1664
sVpricerange
p1665
Vexpensive
p1666
sVdate
p1667
Vtomorrow night
p1668
sVtype
p1669
Vcoffee shop
p1670
ssV2
(dp1671
Vcity
p1672
VParis
p1673
sVaddr
p1674
V55 Brooksby Village Way, Danvers MA 1923
p1675
sVhastv
p1676
Vtrue
p1677
sVfood
p1678
Vjapanese
p1679
sVhasinternet
p1680
Vtrue
p1681
sVpricerange
p1682
Vdontcare
p1683
sVdate
p1684
Vtonight
p1685
sVtype
p1686
Vcoffee shop
p1687
ssV6
(dp1688
Vcity
p1689
VTokyo
p1690
sVaddr
p1691
V30 Memorial Drive, Avon MA 2322
p1692
sVhastv
p1693
Vtrue
p1694
sVfood
p1695
Vchinese
p1696
sVhasinternet
p1697
Vtrue
p1698
sVpricerange
p1699
Vmoderate
p1700
sVdate
p1701
Vtomorrow
p1702
sVtype
p1703
Vrestaurant
p1704
ssV99
p1705
(dp1706
Vcity
p1707
VLisbon
p1708
sVaddr
p1709
V137 Teaticket Hwy, East Falmouth MA 2536
p1710
sVhastv
p1711
Vtrue
p1712
sVfood
p1713
Veuropean
p1714
sVhasinternet
p1715
Vtrue
p1716
sVpricerange
p1717
Vexpensive
p1718
sVdate
p1719
Vtomorrow
p1720
sVtype
p1721
Vcoffee shop
p1722
ssV98
p1723
(dp1724
Vcity
p1725
VMumbai
p1726
sVaddr
p1727
V591 Memorial Dr, Chicopee MA 1020
p1728
sVhastv
p1729
Vfalse
p1730
sVfood
p1731
Vindian
p1732
sVhasinternet
p1733
Vfalse
p1734
sVpricerange
p1735
Vdontcare
p1736
sVdate
p1737
Vtonight
p1738
sVtype
p1739
Vpub
p1740
ssV91
p1741
(dp1742
Vcity
p1743
VTokyo
p1744
sVaddr
p1745
V66-4 Parkhurst Rd, Chelmsford MA 1824
p1746
sVhastv
p1747
Vtrue
p1748
sVfood
p1749
Vchinese
p1750
sVhasinternet
p1751
Vfalse
p1752
sVpricerange
p1753
Vexpensive
p1754
sVdate
p1755
Vtoday
p1756
sVtype
p1757
Vrestaurant
p1758
ssV90
p1759
(dp1760
Vcity
p1761
VParis
p1762
sVaddr
p1763
V591 Memorial Dr, Chicopee MA 1020
p1764
sVhastv
p1765
Vfalse
p1766
sVfood
p1767
Vthai
p1768
sVhasinternet
p1769
Vfalse
p1770
sVpricerange
p1771
Vdontcare
p1772
sVdate
p1773
Vtomorrow night
p1774
sVtype
p1775
Vrestaurant
p1776
ssV93
p1777
(dp1778
Vcity
p1779
VLondon
p1780
sVaddr
p1781
V66-4 Parkhurst Rd, Chelmsford MA 1824
p1782
sVhastv
p1783
Vfalse
p1784
sVfood
p1785
Vgastropub
p1786
sVhasinternet
p1787
Vtrue
p1788
sVpricerange
p1789
Vdontcare
p1790
sVdate
p1791
Vsunday
p1792
sVtype
p1793
Vpub
p1794
ssV92
p1795
(dp1796
Vcity
p1797
VMumbai
p1798
sVaddr
p1799
V777 Brockton Avenue, Abington MA 2351
p1800
sVhastv
p1801
Vtrue
p1802
sVfood
p1803
Vvietnamese
p1804
sVhasinternet
p1805
Vtrue
p1806
sVpricerange
p1807
Vcheap
p1808
sVdate
p1809
Vsunday
p1810
sVtype
p1811
Vcoffee shop
p1812
ssV95
p1813
(dp1814
Vcity
p1815
VMumbai
p1816
sVaddr
p1817
V42 Fairhaven Commons Way, Fairhaven MA 2719
p1818
sVhastv
p1819
Vfalse
p1820
sVfood
p1821
Vfrench
p1822
sVhasinternet
p1823
Vtrue
p1824
sVpricerange
p1825
Vmoderate
p1826
sVdate
p1827
Vsunday
p1828
sVtype
p1829
Vcoffee shop
p1830
ssV94
p1831
(dp1832
Vcity
p1833
VLondon
p1834
sVaddr
p1835
V55 Brooksby Village Way, Danvers MA 1923
p1836
sVhastv
p1837
Vtrue
p1838
sVfood
p1839
Vchinese
p1840
sVhasinternet
p1841
Vtrue
p1842
sVpricerange
p1843
Vexpensive
p1844
sVdate
p1845
Vtomorrow
p1846
sVtype
p1847
Vcoffee shop
p1848
ssV97
p1849
(dp1850
Vcity
p1851
VLondon
p1852
sVaddr
p1853
V30 Memorial Drive, Avon MA 2322
p1854
sVhastv
p1855
Vtrue
p1856
sVfood
p1857
Vfrench
p1858
sVhasinternet
p1859
Vtrue
p1860
sVpricerange
p1861
Vdontcare
p1862
sVdate
p1863
Vtomorrow night
p1864
sVtype
p1865
Vrestaurant
p1866
ssV96
p1867
(dp1868
Vcity
p1869
VLondon
p1870
sVaddr
p1871
V777 Brockton Avenue, Abington MA 2351
p1872
sVhastv
p1873
Vfalse
p1874
sVfood
p1875
Veuropean
p1876
sVhasinternet
p1877
Vtrue
p1878
sVpricerange
p1879
Vmoderate
p1880
sVdate
p1881
Vtomorrow night
p1882
sVtype
p1883
Vrestaurant
p1884
ssV11
p1885
(dp1886
Vcity
p1887
VParis
p1888
sVaddr
p1889
V374 William S Canning Blvd, Fall River MA 2721
p1890
sVhastv
p1891
Vfalse
p1892
sVfood
p1893
Vmodern european
p1894
sVhasinternet
p1895
Vtrue
p1896
sVpricerange
p1897
Vmoderate
p1898
sVdate
p1899
Vtonight
p1900
sVtype
p1901
Vrestaurant
p1902
ssV10
p1903
(dp1904
Vcity
p1905
VParis
p1906
sVaddr
p1907
V374 William S Canning Blvd, Fall River MA 2721
p1908
sVhastv
p1909
Vfalse
p1910
sVfood
p1911
Vlebanese
p1912
sVhasinternet
p1913
Vfalse
p1914
sVpricerange
p1915
Vmoderate
p1916
sVdate
p1917
Vtomorrow night
p1918
sVtype
p1919
Vpub
p1920
ssV13
p1921
(dp1922
Vcity
p1923
VMumbai
p1924
sVaddr
p1925
V700 Oak Street, Brockton MA 2301
p1926
sVhastv
p1927
Vtrue
p1928
sVfood
p1929
Vkorean
p1930
sVhasinternet
p1931
Vtrue
p1932
sVpricerange
p1933
Vdontcare
p1934
sVdate
p1935
Vthis weekend
p1936
sVtype
p1937
Vpub
p1938
ssV12
p1939
(dp1940
Vcity
p1941
VTokyo
p1942
sVaddr
p1943
V55 Brooksby Village Way, Danvers MA 1923
p1944
sVhastv
p1945
Vfalse
p1946
sVfood
p1947
Vseafood
p1948
sVhasinternet
p1949
Vfalse
p1950
sVpricerange
p1951
Vexpensive
p1952
sVdate
p1953
Vtomorrow night
p1954
sVtype
p1955
Vrestaurant
p1956
ssV15
p1957
(dp1958
Vcity
p1959
VMumbai
p1960
sVaddr
p1961
V30 Memorial Drive, Avon MA 2322
p1962
sVhastv
p1963
Vtrue
p1964
sVfood
p1965
Vchinese
p1966
sVhasinternet
p1967
Vfalse
p1968
sVpricerange
p1969
Vcheap
p1970
sVdate
p1971
Vtomorrow
p1972
sVtype
p1973
Vcoffee shop
p1974
ssV14
p1975
(dp1976
Vcity
p1977
VLisbon
p1978
sVaddr
p1979
V42 Fairhaven Commons Way, Fairhaven MA 2719
p1980
sVhastv
p1981
Vfalse
p1982
sVfood
p1983
Vturkish
p1984
sVhasinternet
p1985
Vfalse
p1986
sVpricerange
p1987
Vexpensive
p1988
sVdate
p1989
Vtomorrow
p1990
sVtype
p1991
Vcoffee shop
p1992
ssV17
p1993
(dp1994
Vcity
p1995
VParis
p1996
sVaddr
p1997
V55 Brooksby Village Way, Danvers MA 1923
p1998
sVhastv
p1999
Vtrue
p2000
sVfood
p2001
Vgastropub
p2002
sVhasinternet
p2003
Vfalse
p2004
sVpricerange
p2005
Vmoderate
p2006
sVdate
p2007
Vtomorrow
p2008
sVtype
p2009
Vrestaurant
p2010
ssV16
p2011
(dp2012
Vcity
p2013
VMumbai
p2014
sVaddr
p2015
V42 Fairhaven Commons Way, Fairhaven MA 2719
p2016
sVhastv
p2017
Vtrue
p2018
sVfood
p2019
Vnorth american
p2020
sVhasinternet
p2021
Vtrue
p2022
sVpricerange
p2023
Vcheap
p2024
sVdate
p2025
Vsunday
p2026
sVtype
p2027
Vrestaurant
p2028
ssV19
p2029
(dp2030
Vcity
p2031
VLondon
p2032
sVaddr
p2033
V250 Hartford Avenue, Bellingham MA 2019
p2034
sVhastv
p2035
Vtrue
p2036
sVfood
p2037
Vvietnamese
p2038
sVhasinternet
p2039
Vtrue
p2040
sVpricerange
p2041
Vdontcare
p2042
sVdate
p2043
Vtoday
p2044
sVtype
p2045
Vrestaurant
p2046
ssV18
p2047
(dp2048
Vcity
p2049
VMumbai
p2050
sVaddr
p2051
V591 Memorial Dr, Chicopee MA 1020
p2052
sVhastv
p2053
Vtrue
p2054
sVfood
p2055
Vgastropub
p2056
sVhasinternet
p2057
Vtrue
p2058
sVpricerange
p2059
Vmoderate
p2060
sVdate
p2061
Vtomorrow
p2062
sVtype
p2063
Vcoffee shop
p2064
ssV117
p2065
(dp2066
Vcity
p2067
VLondon
p2068
sVaddr
p2069
V137 Teaticket Hwy, East Falmouth MA 2536
p2070
sVhastv
p2071
Vfalse
p2072
sVfood
p2073
Vindian
p2074
sVhasinternet
p2075
Vtrue
p2076
sVpricerange
p2077
Vdontcare
p2078
sVdate
p2079
Vtoday
p2080
sVtype
p2081
Vpub
p2082
ssV116
p2083
(dp2084
Vcity
p2085
VMumbai
p2086
sVaddr
p2087
V374 William S Canning Blvd, Fall River MA 2721
p2088
sVhastv
p2089
Vtrue
p2090
sVfood
p2091
Vgastropub
p2092
sVhasinternet
p2093
Vtrue
p2094
sVpricerange
p2095
Vcheap
p2096
sVdate
p2097
Vtoday
p2098
sVtype
p2099
Vcoffee shop
p2100
ssV151
p2101
(dp2102
Vcity
p2103
VTokyo
p2104
sVaddr
p2105
V250 Hartford Avenue, Bellingham MA 2019
p2106
sVhastv
p2107
Vtrue
p2108
sVfood
p2109
Vgastropub
p2110
sVhasinternet
p2111
Vtrue
p2112
sVpricerange
p2113
Vexpensive
p2114
sVdate
p2115
Vtomorrow night
p2116
sVtype
p2117
Vcoffee shop
p2118
ssV150
p2119
(dp2120
Vcity
p2121
VTokyo
p2122
sVaddr
p2123
V30 Memorial Drive, Avon MA 2322
p2124
sVhastv
p2125
Vtrue
p2126
sVfood
p2127
Vnorth american
p2128
sVhasinternet
p2129
Vfalse
p2130
sVpricerange
p2131
Vmoderate
p2132
sVdate
p2133
Vtonight
p2134
sVtype
p2135
Vrestaurant
p2136
ssV48
p2137
(dp2138
Vcity
p2139
VTokyo
p2140
sVaddr
p2141
V42 Fairhaven Commons Way, Fairhaven MA 2719
p2142
sVhastv
p2143
Vtrue
p2144
sVfood
p2145
Vmodern european
p2146
sVhasinternet
p2147
Vtrue
p2148
sVpricerange
p2149
Vexpensive
p2150
sVdate
p2151
Vtoday
p2152
sVtype
p2153
Vcoffee shop
p2154
ssV49
p2155
(dp2156
Vcity
p2157
VLisbon
p2158
sVaddr
p2159
V374 William S Canning Blvd, Fall River MA 2721
p2160
sVhastv
p2161
Vfalse
p2162
sVfood
p2163
Vmodern european
p2164
sVhasinternet
p2165
Vfalse
p2166
sVpricerange
p2167
Vexpensive
p2168
sVdate
p2169
Vthis weekend
p2170
sVtype
p2171
Vpub
p2172
ssV46
p2173
(dp2174
Vcity
p2175
VMumbai
p2176
sVaddr
p2177
V42 Fairhaven Commons Way, Fairhaven MA 2719
p2178
sVhastv
p2179
Vtrue
p2180
sVfood
p2181
Vasian oriental
p2182
sVhasinternet
p2183
Vtrue
p2184
sVpricerange
p2185
Vmoderate
p2186
sVdate
p2187
Vtomorrow night
p2188
sVtype
p2189
Vpub
p2190
ssV47
p2191
(dp2192
Vcity
p2193
VNew York
p2194
sVaddr
p2195
V55 Brooksby Village Way, Danvers MA 1923
p2196
sVhastv
p2197
Vtrue
p2198
sVfood
p2199
Vasian oriental
p2200
sVhasinternet
p2201
Vtrue
p2202
sVpricerange
p2203
Vmoderate
p2204
sVdate
p2205
Vtomorrow night
p2206
sVtype
p2207
Vcoffee shop
p2208
ssV44
p2209
(dp2210
Vcity
p2211
VTokyo
p2212
sVaddr
p2213
V30 Memorial Drive, Avon MA 2322
p2214
sVhastv
p2215
Vfalse
p2216
sVfood
p2217
Vvietnamese
p2218
sVhasinternet
p2219
Vfalse
p2220
sVpricerange
p2221
Vmoderate
p2222
sVdate
p2223
Vsunday
p2224
sVtype
p2225
Vpub
p2226
ssV45
p2227
(dp2228
Vcity
p2229
VMumbai
p2230
sVaddr
p2231
V700 Oak Street, Brockton MA 2301
p2232
sVhastv
p2233
Vtrue
p2234
sVfood
p2235
Vindian
p2236
sVhasinternet
p2237
Vfalse
p2238
sVpricerange
p2239
Vcheap
p2240
sVdate
p2241
Vtoday
p2242
sVtype
p2243
Vrestaurant
p2244
ssV42
p2245
(dp2246
Vcity
p2247
VLisbon
p2248
sVaddr
p2249
V66-4 Parkhurst Rd, Chelmsford MA 1824
p2250
sVhastv
p2251
Vfalse
p2252
sVfood
p2253
Vchinese
p2254
sVhasinternet
p2255
Vfalse
p2256
sVpricerange
p2257
Vmoderate
p2258
sVdate
p2259
Vtoday
p2260
sVtype
p2261
Vrestaurant
p2262
ssV43
p2263
(dp2264
Vcity
p2265
VLondon
p2266
sVaddr
p2267
V42 Fairhaven Commons Way, Fairhaven MA 2719
p2268
sVhastv
p2269
Vfalse
p2270
sVfood
p2271
Vindian
p2272
sVhasinternet
p2273
Vfalse
p2274
sVpricerange
p2275
Vmoderate
p2276
sVdate
p2277
Vsunday
p2278
sVtype
p2279
Vrestaurant
p2280
ssV40
p2281
(dp2282
Vcity
p2283
VLisbon
p2284
sVaddr
p2285
V30 Memorial Drive, Avon MA 2322
p2286
sVhastv
p2287
Vfalse
p2288
sVfood
p2289
Vspanish
p2290
sVhasinternet
p2291
Vtrue
p2292
sVpricerange
p2293
Vdontcare
p2294
sVdate
p2295
Vtomorrow night
p2296
sVtype
p2297
Vpub
p2298
ssV41
p2299
(dp2300
Vcity
p2301
VNew York
p2302
sVaddr
p2303
V66-4 Parkhurst Rd, Chelmsford MA 1824
p2304
sVhastv
p2305
Vfalse
p2306
sVfood
p2307
Vportuguese
p2308
sVhasinternet
p2309
Vtrue
p2310
sVpricerange
p2311
Vdontcare
p2312
sVdate
p2313
Vtomorrow
p2314
sVtype
p2315
Vpub
p2316
ssV1
(dp2317
Vcity
p2318
VParis
p2319
sVaddr
p2320
V42 Fairhaven Commons Way, Fairhaven MA 2719
p2321
sVhastv
p2322
Vfalse
p2323
sVfood
p2324
Vkorean
p2325
sVhasinternet
p2326
Vtrue
p2327
sVpricerange
p2328
Vdontcare
p2329
sVdate
p2330
Vtomorrow night
p2331
sVtype
p2332
Vrestaurant
p2333
ssV5
(dp2334
Vcity
p2335
VMumbai
p2336
sVaddr
p2337
V137 Teaticket Hwy, East Falmouth MA 2536
p2338
sVhastv
p2339
Vfalse
p2340
sVfood
p2341
Vchinese
p2342
sVhasinternet
p2343
Vfalse
p2344
sVpricerange
p2345
Vdontcare
p2346
sVdate
p2347
Vtoday
p2348
sVtype
p2349
Vcoffee shop
p2350
ssV9
(dp2351
Vcity
p2352
VTokyo
p2353
sVaddr
p2354
V42 Fairhaven Commons Way, Fairhaven MA 2719
p2355
sVhastv
p2356
Vfalse
p2357
sVfood
p2358
Vspanish
p2359
sVhasinternet
p2360
Vtrue
p2361
sVpricerange
p2362
Vexpensive
p2363
sVdate
p2364
Vtoday
p2365
sVtype
p2366
Vcoffee shop
p2367
ssV146
p2368
(dp2369
Vcity
p2370
VMumbai
p2371
sVaddr
p2372
V250 Hartford Avenue, Bellingham MA 2019
p2373
sVhastv
p2374
Vtrue
p2375
sVfood
p2376
Vvietnamese
p2377
sVhasinternet
p2378
Vfalse
p2379
sVpricerange
p2380
Vdontcare
p2381
sVdate
p2382
Vtomorrow night
p2383
sVtype
p2384
Vpub
p2385
ssV147
p2386
(dp2387
Vcity
p2388
VLisbon
p2389
sVaddr
p2390
V21 Worcester Rd, Framingham MA 1701
p2391
sVhastv
p2392
Vtrue
p2393
sVfood
p2394
Vafrican
p2395
sVhasinternet
p2396
Vtrue
p2397
sVpricerange
p2398
Vmoderate
p2399
sVdate
p2400
Vtomorrow
p2401
sVtype
p2402
Vpub
p2403
ssV144
p2404
(dp2405
Vcity
p2406
VLisbon
p2407
sVaddr
p2408
V42 Fairhaven Commons Way, Fairhaven MA 2719
p2409
sVhastv
p2410
Vtrue
p2411
sVfood
p2412
Vgastropub
p2413
sVhasinternet
p2414
Vtrue
p2415
sVpricerange
p2416
Vmoderate
p2417
sVdate
p2418
Vtoday
p2419
sVtype
p2420
Vpub
p2421
ssV145
p2422
(dp2423
Vcity
p2424
VMumbai
p2425
sVaddr
p2426
V21 Worcester Rd, Framingham MA 1701
p2427
sVhastv
p2428
Vfalse
p2429
sVfood
p2430
Vmediterranean
p2431
sVhasinternet
p2432
Vfalse
p2433
sVpricerange
p2434
Vcheap
p2435
sVdate
p2436
Vthis weekend
p2437
sVtype
p2438
Vpub
p2439
ssV142
p2440
(dp2441
Vcity
p2442
VTokyo
p2443
sVaddr
p2444
V700 Oak Street, Brockton MA 2301
p2445
sVhastv
p2446
Vtrue
p2447
sVfood
p2448
Vjapanese
p2449
sVhasinternet
p2450
Vtrue
p2451
sVpricerange
p2452
Vexpensive
p2453
sVdate
p2454
Vtoday
p2455
sVtype
p2456
Vrestaurant
p2457
ssV143
p2458
(dp2459
Vcity
p2460
VMumbai
p2461
sVaddr
p2462
V30 Memorial Drive, Avon MA 2322
p2463
sVhastv
p2464
Vtrue
p2465
sVfood
p2466
Vindian
p2467
sVhasinternet
p2468
Vfalse
p2469
sVpricerange
p2470
Vexpensive
p2471
sVdate
p2472
Vtomorrow night
p2473
sVtype
p2474
Vrestaurant
p2475
ssV140
p2476
(dp2477
Vcity
p2478
VTokyo
p2479
sVaddr
p2480
V374 William S Canning Blvd, Fall River MA 2721
p2481
sVhastv
p2482
Vfalse
p2483
sVfood
p2484
Vfrench
p2485
sVhasinternet
p2486
Vtrue
p2487
sVpricerange
p2488
Vdontcare
p2489
sVdate
p2490
Vsunday
p2491
sVtype
p2492
Vcoffee shop
p2493
ssV141
p2494
(dp2495
Vcity
p2496
VTokyo
p2497
sVaddr
p2498
V42 Fairhaven Commons Way, Fairhaven MA 2719
p2499
sVhastv
p2500
Vfalse
p2501
sVfood
p2502
Vportuguese
p2503
sVhasinternet
p2504
Vfalse
p2505
sVpricerange
p2506
Vdontcare
p2507
sVdate
p2508
Vtomorrow
p2509
sVtype
p2510
Vrestaurant
p2511
ssV148
p2512
(dp2513
Vcity
p2514
VParis
p2515
sVaddr
p2516
V374 William S Canning Blvd, Fall River MA 2721
p2517
sVhastv
p2518
Vfalse
p2519
sVfood
p2520
Veuropean
p2521
sVhasinternet
p2522
Vfalse
p2523
sVpricerange
p2524
Vdontcare
p2525
sVdate
p2526
Vsunday
p2527
sVtype
p2528
Vpub
p2529
ssV149
p2530
(dp2531
Vcity
p2532
VMumbai
p2533
sVaddr
p2534
V21 Worcester Rd, Framingham MA 1701
p2535
sVhastv
p2536
Vtrue
p2537
sVfood
p2538
Vinternational
p2539
sVhasinternet
p2540
Vtrue
p2541
sVpricerange
p2542
Vdontcare
p2543
sVdate
p2544
Vtomorrow night
p2545
sVtype
p2546
Vrestaurant
p2547
ssV77
p2548
(dp2549
Vcity
p2550
VMumbai
p2551
sVaddr
p2552
V66-4 Parkhurst Rd, Chelmsford MA 1824
p2553
sVhastv
p2554
Vtrue
p2555
sVfood
p2556
Vkorean
p2557
sVhasinternet
p2558
Vfalse
p2559
sVpricerange
p2560
Vmoderate
p2561
sVdate
p2562
Vtoday
p2563
sVtype
p2564
Vpub
p2565
ssV76
p2566
(dp2567
Vcity
p2568
VMumbai
p2569
sVaddr
p2570
V66-4 Parkhurst Rd, Chelmsford MA 1824
p2571
sVhastv
p2572
Vtrue
p2573
sVfood
p2574
Vlebanese
p2575
sVhasinternet
p2576
Vfalse
p2577
sVpricerange
p2578
Vcheap
p2579
sVdate
p2580
Vtomorrow night
p2581
sVtype
p2582
Vcoffee shop
p2583
ssV75
p2584
(dp2585
Vcity
p2586
VTokyo
p2587
sVaddr
p2588
V55 Brooksby Village Way, Danvers MA 1923
p2589
sVhastv
p2590
Vtrue
p2591
sVfood
p2592
Veuropean
p2593
sVhasinternet
p2594
Vfalse
p2595
sVpricerange
p2596
Vexpensive
p2597
sVdate
p2598
Vtomorrow
p2599
sVtype
p2600
Vrestaurant
p2601
ssV74
p2602
(dp2603
Vcity
p2604
VTokyo
p2605
sVaddr
p2606
V21 Worcester Rd, Framingham MA 1701
p2607
sVhastv
p2608
Vfalse
p2609
sVfood
p2610
Vportuguese
p2611
sVhasinternet
p2612
Vtrue
p2613
sVpricerange
p2614
Vmoderate
p2615
sVdate
p2616
Vtonight
p2617
sVtype
p2618
Vcoffee shop
p2619
ssV73
p2620
(dp2621
Vcity
p2622
VNew York
p2623
sVaddr
p2624
V55 Brooksby Village Way, Danvers MA 1923
p2625
sVhastv
p2626
Vfalse
p2627
sVfood
p2628
Vvietnamese
p2629
sVhasinternet
p2630
Vfalse
p2631
sVpricerange
p2632
Vdontcare
p2633
sVdate
p2634
Vtomorrow
p2635
sVtype
p2636
Vrestaurant
p2637
ssV72
p2638
(dp2639
Vcity
p2640
VLondon
p2641
sVaddr
p2642
V66-4 Parkhurst Rd, Chelmsford MA 1824
p2643
sVhastv
p2644
Vfalse
p2645
sVfood
p2646
Vlebanese
p2647
sVhasinternet
p2648
Vfalse
p2649
sVpricerange
p2650
Vcheap
p2651
sVdate
p2652
Vthis weekend
p2653
sVtype
p2654
Vpub
p2655
ssV71
p2656
(dp2657
Vcity
p2658
VMumbai
p2659
sVaddr
p2660
V777 Brockton Avenue, Abington MA 2351
p2661
sVhastv
p2662
Vtrue
p2663
sVfood
p2664
Vportuguese
p2665
sVhasinternet
p2666
Vtrue
p2667
sVpricerange
p2668
Vcheap
p2669
sVdate
p2670
Vtomorrow
p2671
sVtype
p2672
Vpub
p2673
ssV70
p2674
(dp2675
Vcity
p2676
VMumbai
p2677
sVaddr
p2678
V137 Teaticket Hwy, East Falmouth MA 2536
p2679
sVhastv
p2680
Vtrue
p2681
sVfood
p2682
Vportuguese
p2683
sVhasinternet
p2684
Vfalse
p2685
sVpricerange
p2686
Vcheap
p2687
sVdate
p2688
Vtomorrow night
p2689
sVtype
p2690
Vpub
p2691
ssV79
p2692
(dp2693
Vcity
p2694
VMumbai
p2695
sVaddr
p2696
V21 Worcester Rd, Framingham MA 1701
p2697
sVhastv
p2698
Vfalse
p2699
sVfood
p2700
Vgastropub
p2701
sVhasinternet
p2702
Vtrue
p2703
sVpricerange
p2704
Vcheap
p2705
sVdate
p2706
Vtoday
p2707
sVtype
p2708
Vcoffee shop
p2709
ssV78
p2710
(dp2711
Vcity
p2712
VLisbon
p2713
sVaddr
p2714
V250 Hartford Avenue, Bellingham MA 2019
p2715
sVhastv
p2716
Vtrue
p2717
sVfood
p2718
Vmediterranean
p2719
sVhasinternet
p2720
Vfalse
p2721
sVpricerange
p2722
Vexpensive
p2723
sVdate
p2724
Vtoday
p2725
sVtype
p2726
Vcoffee shop
p2727
ss.