(lp1
(dp2
Vrequest_slots
p3
(dp4
Vcity
p5
VUKN
p6
sVaddr
p7
VUKN
p8
sVhastv
p9
VUKN
p10
ssVdiaact
p11
Vrequest
p12
sVinform_slots
p13
(dp14
Vnumberofpeople
p15
I2
sVfood
p16
Vvietnamese
p17
sVhasinternet
p18
Vfalse
p19
sVpricerange
p20
Vdontcare
p21
sVdate
p22
Vtomorrow
p23
sVtype
p24
Vrestaurant
p25
ssa(dp26
Vrequest_slots
p27
(dp28
Vdate
p29
VUKN
p30
sVpricerange
p31
VUKN
p32
sVhasinternet
p33
VUKN
p34
sVaddr
p35
VUKN
p36
ssVdiaact
p37
Vrequest
p38
sVinform_slots
p39
(dp40
Vfood
p41
Vkorean
p42
sVcity
p43
VLisbon
p44
sVnumberofpeople
p45
I6
sVtype
p46
Vcoffee shop
p47
sVhastv
p48
Vfalse
p49
ssa(dp50
Vrequest_slots
p51
(dp52
Vfood
p53
VUKN
p54
sVdate
p55
VUKN
p56
sVhasinternet
p57
VUKN
p58
sVaddr
p59
VUKN
p60
ssVdiaact
p61
Vrequest
p62
sVinform_slots
p63
(dp64
Vtype
p65
Vpub
p66
sVnumberofpeople
p67
I4
sVpricerange
p68
Vcheap
p69
sVcity
p70
VMumbai
p71
sVhastv
p72
Vfalse
p73
ssa(dp74
Vrequest_slots
p75
(dp76
Vdate
p77
VUKN
p78
sVpricerange
p79
VUKN
p80
sVaddr
p81
VUKN
p82
sVhastv
p83
VUKN
p84
ssVdiaact
p85
Vrequest
p86
sVinform_slots
p87
(dp88
Vfood
p89
Vturkish
p90
sVcity
p91
VNew York
p92
sVnumberofpeople
p93
I8
sVhasinternet
p94
Vfalse
p95
sVtype
p96
Vrestaurant
p97
ssa(dp98
Vrequest_slots
p99
(dp100
Vpricerange
p101
VUKN
p102
sVhasinternet
p103
VUKN
p104
sVaddr
p105
VUKN
p106
sVhastv
p107
VUKN
p108
ssVdiaact
p109
Vrequest
p110
sVinform_slots
p111
(dp112
Vfood
p113
Vmediterranean
p114
sVcity
p115
VLisbon
p116
sVnumberofpeople
p117
I1
sVtype
p118
Vcoffee shop
p119
sVdate
p120
Vtoday
p121
ssa(dp122
Vrequest_slots
p123
(dp124
Vdate
p125
VUKN
p126
sVpricerange
p127
VUKN
p128
sVaddr
p129
VUKN
p130
ssVdiaact
p131
Vrequest
p132
sVinform_slots
p133
(dp134
Vcity
p135
VTokyo
p136
sVnumberofpeople
p137
I2
sVhastv
p138
Vtrue
p139
sVfood
p140
Vmodern european
p141
sVhasinternet
p142
Vtrue
p143
sVtype
p144
Vpub
p145
ssa(dp146
Vrequest_slots
p147
(dp148
Vdate
p149
VUKN
p150
sVcity
p151
VUKN
p152
sVhasinternet
p153
VUKN
p154
sVaddr
p155
VUKN
p156
ssVdiaact
p157
Vrequest
p158
sVinform_slots
p159
(dp160
Vfood
p161
Vportuguese
p162
sVtype
p163
Vpub
p164
sVnumberofpeople
p165
I2
sVpricerange
p166
Vcheap
p167
sVhastv
p168
Vtrue
p169
ssa(dp170
Vrequest_slots
p171
(dp172
sVdiaact
p173
Vrequest
p174
sVinform_slots
p175
(dp176
Vcity
p177
VNew York
p178
sVnumberofpeople
p179
I2
sVhastv
p180
Vfalse
p181
sVfood
p182
Vthai
p183
sVhasinternet
p184
Vfalse
p185
sVpricerange
p186
Vdontcare
p187
sVdate
p188
Vtonight
p189
sVtype
p190
Vpub
p191
ssa(dp192
Vrequest_slots
p193
(dp194
Vdate
p195
VUKN
p196
sVpricerange
p197
VUKN
p198
sVhasinternet
p199
VUKN
p200
sVaddr
p201
VUKN
p202
sVhastv
p203
VUKN
p204
ssVdiaact
p205
Vrequest
p206
sVinform_slots
p207
(dp208
Vfood
p209
Vthai
p210
sVcity
p211
VLisbon
p212
sVnumberofpeople
p213
I2
sVtype
p214
Vcoffee shop
p215
ssa(dp216
Vrequest_slots
p217
(dp218
Vpricerange
p219
VUKN
p220
sVaddr
p221
VUKN
p222
sVhastv
p223
VUKN
p224
ssVdiaact
p225
Vrequest
p226
sVinform_slots
p227
(dp228
Vcity
p229
VParis
p230
sVnumberofpeople
p231
I6
sVfood
p232
Vitalian
p233
sVhasinternet
p234
Vfalse
p235
sVdate
p236
Vtomorrow night
p237
sVtype
p238
Vcoffee shop
p239
ssa(dp240
Vrequest_slots
p241
(dp242
Vfood
p243
VUKN
p244
sVdate
p245
VUKN
p246
sVhasinternet
p247
VUKN
p248
sVaddr
p249
VUKN
p250
ssVdiaact
p251
Vrequest
p252
sVinform_slots
p253
(dp254
Vtype
p255
Vpub
p256
sVnumberofpeople
p257
I6
sVpricerange
p258
Vcheap
p259
sVcity
p260
VMumbai
p261
sVhastv
p262
Vtrue
p263
ssa(dp264
Vrequest_slots
p265
(dp266
Vfood
p267
VUKN
p268
sVaddr
p269
VUKN
p270
sVhastv
p271
VUKN
p272
ssVdiaact
p273
Vrequest
p274
sVinform_slots
p275
(dp276
Vcity
p277
VMumbai
p278
sVnumberofpeople
p279
I1
sVhasinternet
p280
Vtrue
p281
sVpricerange
p282
Vcheap
p283
sVdate
p284
Vtoday
p285
sVtype
p286
Vcoffee shop
p287
ssa(dp288
Vrequest_slots
p289
(dp290
sVdiaact
p291
Vrequest
p292
sVinform_slots
p293
(dp294
Vcity
p295
VMumbai
p296
sVnumberofpeople
p297
I1
sVhastv
p298
Vtrue
p299
sVfood
p300
Vgastropub
p301
sVhasinternet
p302
Vtrue
p303
sVpricerange
p304
Vmoderate
p305
sVdate
p306
Vtomorrow
p307
sVtype
p308
Vcoffee shop
p309
ssa(dp310
Vrequest_slots
p311
(dp312
Vcity
p313
VUKN
p314
sVhasinternet
p315
VUKN
p316
sVaddr
p317
VUKN
p318
ssVdiaact
p319
Vrequest
p320
sVinform_slots
p321
(dp322
Vnumberofpeople
p323
I8
sVhastv
p324
Vfalse
p325
sVfood
p326
Vturkish
p327
sVpricerange
p328
Vmoderate
p329
sVdate
p330
Vtomorrow night
p331
sVtype
p332
Vcoffee shop
p333
ssa(dp334
Vrequest_slots
p335
(dp336
Vpricerange
p337
VUKN
p338
sVhasinternet
p339
VUKN
p340
sVaddr
p341
VUKN
p342
ssVdiaact
p343
Vrequest
p344
sVinform_slots
p345
(dp346
Vcity
p347
VMumbai
p348
sVnumberofpeople
p349
I2
sVhastv
p350
Vfalse
p351
sVfood
p352
Vindian
p353
sVdate
p354
Vtonight
p355
sVtype
p356
Vpub
p357
ssa(dp358
Vrequest_slots
p359
(dp360
Vdate
p361
VUKN
p362
sVpricerange
p363
VUKN
p364
sVaddr
p365
VUKN
p366
sVhastv
p367
VUKN
p368
ssVdiaact
p369
Vrequest
p370
sVinform_slots
p371
(dp372
Vfood
p373
Vchinese
p374
sVcity
p375
VTokyo
p376
sVnumberofpeople
p377
I8
sVhasinternet
p378
Vtrue
p379
sVtype
p380
Vrestaurant
p381
ssa(dp382
Vrequest_slots
p383
(dp384
Vcity
p385
VUKN
p386
sVhasinternet
p387
VUKN
p388
sVaddr
p389
VUKN
p390
sVhastv
p391
VUKN
p392
ssVdiaact
p393
Vrequest
p394
sVinform_slots
p395
(dp396
Vfood
p397
Vthai
p398
sVtype
p399
Vcoffee shop
p400
sVnumberofpeople
p401
I6
sVpricerange
p402
Vdontcare
p403
sVdate
p404
Vtomorrow
p405
ssa(dp406
Vrequest_slots
p407
(dp408
sVdiaact
p409
Vrequest
p410
sVinform_slots
p411
(dp412
Vcity
p413
VMumbai
p414
sVnumberofpeople
p415
I8
sVhastv
p416
Vtrue
p417
sVfood
p418
Vbritish
p419
sVhasinternet
p420
Vtrue
p421
sVpricerange
p422
Vcheap
p423
sVdate
p424
Vtoday
p425
sVtype
p426
Vpub
p427
ssa(dp428
Vrequest_slots
p429
(dp430
Vfood
p431
VUKN
p432
sVdate
p433
VUKN
p434
sVhasinternet
p435
VUKN
p436
sVaddr
p437
VUKN
p438
ssVdiaact
p439
Vrequest
p440
sVinform_slots
p441
(dp442
Vtype
p443
Vcoffee shop
p444
sVnumberofpeople
p445
I6
sVpricerange
p446
Vmoderate
p447
sVcity
p448
VLondon
p449
sVhastv
p450
Vfalse
p451
ssa(dp452
Vrequest_slots
p453
(dp454
Vcity
p455
VUKN
p456
sVaddr
p457
VUKN
p458
sVhastv
p459
VUKN
p460
ssVdiaact
p461
Vrequest
p462
sVinform_slots
p463
(dp464
Vnumberofpeople
p465
I8
sVfood
p466
Vasian oriental
p467
sVhasinternet
p468
Vfalse
p469
sVpricerange
p470
Vexpensive
p471
sVdate
p472
Vtoday
p473
sVtype
p474
Vrestaurant
p475
ssa(dp476
Vrequest_slots
p477
(dp478
Vdate
p479
VUKN
p480
sVcity
p481
VUKN
p482
sVaddr
p483
VUKN
p484
ssVdiaact
p485
Vrequest
p486
sVinform_slots
p487
(dp488
Vnumberofpeople
p489
I1
sVhastv
p490
Vtrue
p491
sVfood
p492
Vvietnamese
p493
sVhasinternet
p494
Vtrue
p495
sVpricerange
p496
Vdontcare
p497
sVtype
p498
Vrestaurant
p499
ssa(dp500
Vrequest_slots
p501
(dp502
Vdate
p503
VUKN
p504
sVpricerange
p505
VUKN
p506
sVaddr
p507
VUKN
p508
ssVdiaact
p509
Vrequest
p510
sVinform_slots
p511
(dp512
Vcity
p513
VLisbon
p514
sVnumberofpeople
p515
I1
sVhastv
p516
Vtrue
p517
sVfood
p518
Vmodern european
p519
sVhasinternet
p520
Vtrue
p521
sVtype
p522
Vcoffee shop
p523
ssa(dp524
Vrequest_slots
p525
(dp526
sVdiaact
p527
Vrequest
p528
sVinform_slots
p529
(dp530
Vcity
p531
VParis
p532
sVnumberofpeople
p533
I6
sVhastv
p534
Vfalse
p535
sVfood
p536
Vvietnamese
p537
sVhasinternet
p538
Vfalse
p539
sVpricerange
p540
Vmoderate
p541
sVdate
p542
Vsunday
p543
sVtype
p544
Vcoffee shop
p545
ssa(dp546
Vrequest_slots
p547
(dp548
Vpricerange
p549
VUKN
p550
sVaddr
p551
VUKN
p552
sVhastv
p553
VUKN
p554
ssVdiaact
p555
Vrequest
p556
sVinform_slots
p557
(dp558
Vcity
p559
VNew York
p560
sVnumberofpeople
p561
I2
sVfood
p562
Vthai
p563
sVhasinternet
p564
Vfalse
p565
sVdate
p566
Vtonight
p567
sVtype
p568
Vpub
p569
ssa(dp570
Vrequest_slots
p571
(dp572
Vdate
p573
VUKN
p574
sVcity
p575
VUKN
p576
sVaddr
p577
VUKN
p578
sVhastv
p579
VUKN
p580
ssVdiaact
p581
Vrequest
p582
sVinform_slots
p583
(dp584
Vfood
p585
Vchinese
p586
sVhasinternet
p587
Vfalse
p588
sVnumberofpeople
p589
I8
sVpricerange
p590
Vmoderate
p591
sVtype
p592
Vrestaurant
p593
ssa(dp594
Vrequest_slots
p595
(dp596
sVdiaact
p597
Vrequest
p598
sVinform_slots
p599
(dp600
Vcity
p601
VTokyo
p602
sVnumberofpeople
p603
I2
sVhastv
p604
Vfalse
p605
sVfood
p606
Vseafood
p607
sVhasinternet
p608
Vfalse
p609
sVpricerange
p610
Vexpensive
p611
sVdate
p612
Vtomorrow night
p613
sVtype
p614
Vrestaurant
p615
ssa(dp616
Vrequest_slots
p617
(dp618
sVdiaact
p619
Vrequest
p620
sVinform_slots
p621
(dp622
Vcity
p623
VParis
p624
sVnumberofpeople
p625
I1
sVhastv
p626
Vtrue
p627
sVfood
p628
Vmediterranean
p629
sVhasinternet
p630
Vtrue
p631
sVpricerange
p632
Vexpensive
p633
sVdate
p634
Vtomorrow night
p635
sVtype
p636
Vrestaurant
p637
ssa(dp638
Vrequest_slots
p639
(dp640
Vfood
p641
VUKN
p642
sVdate
p643
VUKN
p644
sVhasinternet
p645
VUKN
p646
sVaddr
p647
VUKN
p648
ssVdiaact
p649
Vrequest
p650
sVinform_slots
p651
(dp652
Vtype
p653
Vcoffee shop
p654
sVnumberofpeople
p655
I6
sVpricerange
p656
Vcheap
p657
sVcity
p658
VMumbai
p659
sVhastv
p660
Vtrue
p661
ssa(dp662
Vrequest_slots
p663
(dp664
Vfood
p665
VUKN
p666
sVdate
p667
VUKN
p668
sVaddr
p669
VUKN
p670
sVhastv
p671
VUKN
p672
ssVdiaact
p673
Vrequest
p674
sVinform_slots
p675
(dp676
Vhasinternet
p677
Vfalse
p678
sVnumberofpeople
p679
I6
sVpricerange
p680
Vexpensive
p681
sVcity
p682
VLondon
p683
sVtype
p684
Vcoffee shop
p685
ssa(dp686
Vrequest_slots
p687
(dp688
Vcity
p689
VUKN
p690
sVaddr
p691
VUKN
p692
sVhastv
p693
VUKN
p694
ssVdiaact
p695
Vrequest
p696
sVinform_slots
p697
(dp698
Vnumberofpeople
p699
I4
sVfood
p700
Vportuguese
p701
sVhasinternet
p702
Vfalse
p703
sVpricerange
p704
Vdontcare
p705
sVdate
p706
Vtomorrow night
p707
sVtype
p708
Vrestaurant
p709
ssa(dp710
Vrequest_slots
p711
(dp712
sVdiaact
p713
Vrequest
p714
sVinform_slots
p715
(dp716
Vcity
p717
VLisbon
p718
sVnumberofpeople
p719
I6
sVhastv
p720
Vtrue
p721
sVfood
p722
Vkorean
p723
sVhasinternet
p724
Vfalse
p725
sVpricerange
p726
Vcheap
p727
sVdate
p728
Vtomorrow
p729
sVtype
p730
Vpub
p731
ssa(dp732
Vrequest_slots
p733
(dp734
Vfood
p735
VUKN
p736
sVdate
p737
VUKN
p738
sVaddr
p739
VUKN
p740
sVhastv
p741
VUKN
p742
ssVdiaact
p743
Vrequest
p744
sVinform_slots
p745
(dp746
Vhasinternet
p747
Vfalse
p748
sVnumberofpeople
p749
I4
sVpricerange
p750
Vmoderate
p751
sVcity
p752
VMumbai
p753
sVtype
p754
Vcoffee shop
p755
ssa(dp756
Vrequest_slots
p757
(dp758
Vcity
p759
VUKN
p760
sVaddr
p761
VUKN
p762
ssVdiaact
p763
Vrequest
p764
sVinform_slots
p765
(dp766
Vnumberofpeople
p767
I4
sVhastv
p768
Vfalse
p769
sVfood
p770
Vitalian
p771
sVhasinternet
p772
Vtrue
p773
sVpricerange
p774
Vexpensive
p775
sVdate
p776
Vtomorrow night
p777
sVtype
p778
Vcoffee shop
p779
ssa(dp780
Vrequest_slots
p781
(dp782
Vdate
p783
VUKN
p784
sVpricerange
p785
VUKN
p786
sVaddr
p787
VUKN
p788
sVhastv
p789
VUKN
p790
ssVdiaact
p791
Vrequest
p792
sVinform_slots
p793
(dp794
Vfood
p795
Vindian
p796
sVcity
p797
VMumbai
p798
sVnumberofpeople
p799
I2
sVhasinternet
p800
Vfalse
p801
sVtype
p802
Vrestaurant
p803
ssa(dp804
Vrequest_slots
p805
(dp806
Vfood
p807
VUKN
p808
sVdate
p809
VUKN
p810
sVhasinternet
p811
VUKN
p812
sVaddr
p813
VUKN
p814
sVhastv
p815
VUKN
p816
ssVdiaact
p817
Vrequest
p818
sVinform_slots
p819
(dp820
Vtype
p821
Vpub
p822
sVnumberofpeople
p823
I8
sVpricerange
p824
Vmoderate
p825
sVcity
p826
VMumbai
p827
ssa(dp828
Vrequest_slots
p829
(dp830
Vcity
p831
VUKN
p832
sVaddr
p833
VUKN
p834
sVhastv
p835
VUKN
p836
ssVdiaact
p837
Vrequest
p838
sVinform_slots
p839
(dp840
Vnumberofpeople
p841
I8
sVfood
p842
Vjapanese
p843
sVhasinternet
p844
Vtrue
p845
sVpricerange
p846
Vdontcare
p847
sVdate
p848
Vtonight
p849
sVtype
p850
Vcoffee shop
p851
ssa(dp852
Vrequest_slots
p853
(dp854
Vfood
p855
VUKN
p856
sVaddr
p857
VUKN
p858
sVhastv
p859
VUKN
p860
ssVdiaact
p861
Vrequest
p862
sVinform_slots
p863
(dp864
Vcity
p865
VParis
p866
sVnumberofpeople
p867
I2
sVhasinternet
p868
Vfalse
p869
sVpricerange
p870
Vcheap
p871
sVdate
p872
Vtomorrow night
p873
sVtype
p874
Vrestaurant
p875
ssa(dp876
Vrequest_slots
p877
(dp878
sVdiaact
p879
Vrequest
p880
sVinform_slots
p881
(dp882
Vcity
p883
VTokyo
p884
sVnumberofpeople
p885
I8
sVhastv
p886
Vfalse
p887
sVfood
p888
Vchinese
p889
sVhasinternet
p890
Vtrue
p891
sVpricerange
p892
Vmoderate
p893
sVdate
p894
Vtoday
p895
sVtype
p896
Vrestaurant
p897
ssa(dp898
Vrequest_slots
p899
(dp900
sVdiaact
p901
Vrequest
p902
sVinform_slots
p903
(dp904
Vcity
p905
VParis
p906
sVnumberofpeople
p907
I4
sVhastv
p908
Vfalse
p909
sVfood
p910
Vitalian
p911
sVhasinternet
p912
Vfalse
p913
sVpricerange
p914
Vdontcare
p915
sVdate
p916
Vtonight
p917
sVtype
p918
Vcoffee shop
p919
ssa(dp920
Vrequest_slots
p921
(dp922
Vfood
p923
VUKN
p924
sVhasinternet
p925
VUKN
p926
sVaddr
p927
VUKN
p928
sVhastv
p929
VUKN
p930
ssVdiaact
p931
Vrequest
p932
sVinform_slots
p933
(dp934
Vdate
p935
Vtoday
p936
sVtype
p937
Vpub
p938
sVnumberofpeople
p939
I8
sVpricerange
p940
Vmoderate
p941
sVcity
p942
VMumbai
p943
ssa(dp944
Vrequest_slots
p945
(dp946
sVdiaact
p947
Vrequest
p948
sVinform_slots
p949
(dp950
Vcity
p951
VLondon
p952
sVnumberofpeople
p953
I6
sVhastv
p954
Vtrue
p955
sVfood
p956
Vchinese
p957
sVhasinternet
p958
Vfalse
p959
sVpricerange
p960
Vmoderate
p961
sVdate
p962
Vtonight
p963
sVtype
p964
Vcoffee shop
p965
ssa(dp966
Vrequest_slots
p967
(dp968
Vdate
p969
VUKN
p970
sVcity
p971
VUKN
p972
sVhasinternet
p973
VUKN
p974
sVaddr
p975
VUKN
p976
sVhastv
p977
VUKN
p978
ssVdiaact
p979
Vrequest
p980
sVinform_slots
p981
(dp982
Vfood
p983
Veuropean
p984
sVtype
p985
Vrestaurant
p986
sVnumberofpeople
p987
I4
sVpricerange
p988
Vmoderate
p989
ssa(dp990
Vrequest_slots
p991
(dp992
Vpricerange
p993
VUKN
p994
sVaddr
p995
VUKN
p996
sVhastv
p997
VUKN
p998
ssVdiaact
p999
Vrequest
p1000
sVinform_slots
p1001
(dp1002
Vcity
p1003
VLisbon
p1004
sVnumberofpeople
p1005
I2
sVfood
p1006
Vspanish
p1007
sVhasinternet
p1008
Vtrue
p1009
sVdate
p1010
Vtomorrow night
p1011
sVtype
p1012
Vpub
p1013
ssa(dp1014
Vrequest_slots
p1015
(dp1016
sVdiaact
p1017
Vrequest
p1018
sVinform_slots
p1019
(dp1020
Vcity
p1021
VTokyo
p1022
sVnumberofpeople
p1023
I8
sVhastv
p1024
Vtrue
p1025
sVfood
p1026
Vjapanese
p1027
sVhasinternet
p1028
Vfalse
p1029
sVpricerange
p1030
Vdontcare
p1031
sVdate
p1032
Vtonight
p1033
sVtype
p1034
Vrestaurant
p1035
ssa(dp1036
Vrequest_slots
p1037
(dp1038
Vcity
p1039
VUKN
p1040
sVaddr
p1041
VUKN
p1042
sVhastv
p1043
VUKN
p1044
ssVdiaact
p1045
Vrequest
p1046
sVinform_slots
p1047
(dp1048
Vnumberofpeople
p1049
I6
sVfood
p1050
Vasian oriental
p1051
sVhasinternet
p1052
Vtrue
p1053
sVpricerange
p1054
Vmoderate
p1055
sVdate
p1056
Vtomorrow night
p1057
sVtype
p1058
Vpub
p1059
ssa(dp1060
Vrequest_slots
p1061
(dp1062
Vfood
p1063
VUKN
p1064
sVdate
p1065
VUKN
p1066
sVaddr
p1067
VUKN
p1068
sVhastv
p1069
VUKN
p1070
ssVdiaact
p1071
Vrequest
p1072
sVinform_slots
p1073
(dp1074
Vhasinternet
p1075
Vfalse
p1076
sVnumberofpeople
p1077
I4
sVpricerange
p1078
Vcheap
p1079
sVcity
p1080
VTokyo
p1081
sVtype
p1082
Vcoffee shop
p1083
ssa(dp1084
Vrequest_slots
p1085
(dp1086
sVdiaact
p1087
Vrequest
p1088
sVinform_slots
p1089
(dp1090
Vcity
p1091
VLisbon
p1092
sVnumberofpeople
p1093
I2
sVhastv
p1094
Vfalse
p1095
sVfood
p1096
Vafrican
p1097
sVhasinternet
p1098
Vfalse
p1099
sVpricerange
p1100
Vmoderate
p1101
sVdate
p1102
Vtomorrow
p1103
sVtype
p1104
Vpub
p1105
ssa(dp1106
Vrequest_slots
p1107
(dp1108
Vdate
p1109
VUKN
p1110
sVpricerange
p1111
VUKN
p1112
sVhasinternet
p1113
VUKN
p1114
sVaddr
p1115
VUKN
p1116
ssVdiaact
p1117
Vrequest
p1118
sVinform_slots
p1119
(dp1120
Vfood
p1121
Vinternational
p1122
sVcity
p1123
VLisbon
p1124
sVnumberofpeople
p1125
I8
sVtype
p1126
Vrestaurant
p1127
sVhastv
p1128
Vtrue
p1129
ssa(dp1130
Vrequest_slots
p1131
(dp1132
Vfood
p1133
VUKN
p1134
sVaddr
p1135
VUKN
p1136
ssVdiaact
p1137
Vrequest
p1138
sVinform_slots
p1139
(dp1140
Vcity
p1141
VMumbai
p1142
sVnumberofpeople
p1143
I4
sVhastv
p1144
Vtrue
p1145
sVhasinternet
p1146
Vfalse
p1147
sVpricerange
p1148
Vcheap
p1149
sVdate
p1150
Vtomorrow night
p1151
sVtype
p1152
Vcoffee shop
p1153
ssa(dp1154
Vrequest_slots
p1155
(dp1156
sVdiaact
p1157
Vrequest
p1158
sVinform_slots
p1159
(dp1160
Vcity
p1161
VMumbai
p1162
sVnumberofpeople
p1163
I8
sVhastv
p1164
Vtrue
p1165
sVfood
p1166
Vgastropub
p1167
sVhasinternet
p1168
Vtrue
p1169
sVpricerange
p1170
Vmoderate
p1171
sVdate
p1172
Vtomorrow
p1173
sVtype
p1174
Vrestaurant
p1175
ssa(dp1176
Vrequest_slots
p1177
(dp1178
Vdate
p1179
VUKN
p1180
sVcity
p1181
VUKN
p1182
sVhasinternet
p1183
VUKN
p1184
sVaddr
p1185
VUKN
p1186
sVhastv
p1187
VUKN
p1188
ssVdiaact
p1189
Vrequest
p1190
sVinform_slots
p1191
(dp1192
Vfood
p1193
Vkorean
p1194
sVtype
p1195
Vcoffee shop
p1196
sVnumberofpeople
p1197
I2
sVpricerange
p1198
Vdontcare
p1199
ssa(dp1200
Vrequest_slots
p1201
(dp1202
sVdiaact
p1203
Vrequest
p1204
sVinform_slots
p1205
(dp1206
Vcity
p1207
VTokyo
p1208
sVnumberofpeople
p1209
I1
sVhastv
p1210
Vtrue
p1211
sVfood
p1212
Vmodern european
p1213
sVhasinternet
p1214
Vtrue
p1215
sVpricerange
p1216
Vexpensive
p1217
sVdate
p1218
Vtoday
p1219
sVtype
p1220
Vcoffee shop
p1221
ssa(dp1222
Vrequest_slots
p1223
(dp1224
Vfood
p1225
VUKN
p1226
sVaddr
p1227
VUKN
p1228
sVhastv
p1229
VUKN
p1230
ssVdiaact
p1231
Vrequest
p1232
sVinform_slots
p1233
(dp1234
Vcity
p1235
VTokyo
p1236
sVnumberofpeople
p1237
I1
sVhasinternet
p1238
Vfalse
p1239
sVpricerange
p1240
Vmoderate
p1241
sVdate
p1242
Vtomorrow night
p1243
sVtype
p1244
Vrestaurant
p1245
ssa(dp1246
Vrequest_slots
p1247
(dp1248
Vpricerange
p1249
VUKN
p1250
sVhasinternet
p1251
VUKN
p1252
sVaddr
p1253
VUKN
p1254
ssVdiaact
p1255
Vrequest
p1256
sVinform_slots
p1257
(dp1258
Vcity
p1259
VLondon
p1260
sVnumberofpeople
p1261
I4
sVhastv
p1262
Vtrue
p1263
sVfood
p1264
Vchinese
p1265
sVdate
p1266
Vtomorrow
p1267
sVtype
p1268
Vcoffee shop
p1269
ssa(dp1270
Vrequest_slots
p1271
(dp1272
Vcity
p1273
VUKN
p1274
sVaddr
p1275
VUKN
p1276
ssVdiaact
p1277
Vrequest
p1278
sVinform_slots
p1279
(dp1280
Vnumberofpeople
p1281
I6
sVhastv
p1282
Vfalse
p1283
sVfood
p1284
Vitalian
p1285
sVhasinternet
p1286
Vfalse
p1287
sVpricerange
p1288
Vcheap
p1289
sVdate
p1290
Vtomorrow night
p1291
sVtype
p1292
Vpub
p1293
ssa(dp1294
Vrequest_slots
p1295
(dp1296
Vfood
p1297
VUKN
p1298
sVaddr
p1299
VUKN
p1300
sVhastv
p1301
VUKN
p1302
ssVdiaact
p1303
Vrequest
p1304
sVinform_slots
p1305
(dp1306
Vcity
p1307
VMumbai
p1308
sVnumberofpeople
p1309
I4
sVhasinternet
p1310
Vtrue
p1311
sVpricerange
p1312
Vcheap
p1313
sVdate
p1314
Vtoday
p1315
sVtype
p1316
Vcoffee shop
p1317
ssa(dp1318
Vrequest_slots
p1319
(dp1320
Vfood
p1321
VUKN
p1322
sVhasinternet
p1323
VUKN
p1324
sVaddr
p1325
VUKN
p1326
sVhastv
p1327
VUKN
p1328
ssVdiaact
p1329
Vrequest
p1330
sVinform_slots
p1331
(dp1332
Vdate
p1333
Vtonight
p1334
sVtype
p1335
Vrestaurant
p1336
sVnumberofpeople
p1337
I8
sVpricerange
p1338
Vmoderate
p1339
sVcity
p1340
VParis
p1341
ssa(dp1342
Vrequest_slots
p1343
(dp1344
Vdate
p1345
VUKN
p1346
sVpricerange
p1347
VUKN
p1348
sVaddr
p1349
VUKN
p1350
ssVdiaact
p1351
Vrequest
p1352
sVinform_slots
p1353
(dp1354
Vcity
p1355
VMumbai
p1356
sVnumberofpeople
p1357
I8
sVhastv
p1358
Vfalse
p1359
sVfood
p1360
Vfrench
p1361
sVhasinternet
p1362
Vtrue
p1363
sVtype
p1364
Vcoffee shop
p1365
ssa(dp1366
Vrequest_slots
p1367
(dp1368
Vdate
p1369
VUKN
p1370
sVpricerange
p1371
VUKN
p1372
sVhasinternet
p1373
VUKN
p1374
sVaddr
p1375
VUKN
p1376
sVhastv
p1377
VUKN
p1378
ssVdiaact
p1379
Vrequest
p1380
sVinform_slots
p1381
(dp1382
Vfood
p1383
Vitalian
p1384
sVcity
p1385
VTokyo
p1386
sVnumberofpeople
p1387
I4
sVtype
p1388
Vcoffee shop
p1389
ssa(dp1390
Vrequest_slots
p1391
(dp1392
Vdate
p1393
VUKN
p1394
sVcity
p1395
VUKN
p1396
sVhasinternet
p1397
VUKN
p1398
sVaddr
p1399
VUKN
p1400
sVhastv
p1401
VUKN
p1402
ssVdiaact
p1403
Vrequest
p1404
sVinform_slots
p1405
(dp1406
Vfood
p1407
Vmediterranean
p1408
sVtype
p1409
Vrestaurant
p1410
sVnumberofpeople
p1411
I1
sVpricerange
p1412
Vcheap
p1413
ssa(dp1414
Vrequest_slots
p1415
(dp1416
Vdate
p1417
VUKN
p1418
sVcity
p1419
VUKN
p1420
sVhasinternet
p1421
VUKN
p1422
sVaddr
p1423
VUKN
p1424
sVhastv
p1425
VUKN
p1426
ssVdiaact
p1427
Vrequest
p1428
sVinform_slots
p1429
(dp1430
Vfood
p1431
Vasian oriental
p1432
sVtype
p1433
Vrestaurant
p1434
sVnumberofpeople
p1435
I6
sVpricerange
p1436
Vdontcare
p1437
ssa(dp1438
Vrequest_slots
p1439
(dp1440
Vfood
p1441
VUKN
p1442
sVaddr
p1443
VUKN
p1444
sVhastv
p1445
VUKN
p1446
ssVdiaact
p1447
Vrequest
p1448
sVinform_slots
p1449
(dp1450
Vcity
p1451
VTokyo
p1452
sVnumberofpeople
p1453
I4
sVhasinternet
p1454
Vfalse
p1455
sVpricerange
p1456
Vexpensive
p1457
sVdate
p1458
Vtonight
p1459
sVtype
p1460
Vcoffee shop
p1461
ssa(dp1462
Vrequest_slots
p1463
(dp1464
sVdiaact
p1465
Vrequest
p1466
sVinform_slots
p1467
(dp1468
Vcity
p1469
VLondon
p1470
sVnumberofpeople
p1471
I2
sVhastv
p1472
Vfalse
p1473
sVfood
p1474
Vchinese
p1475
sVhasinternet
p1476
Vfalse
p1477
sVpricerange
p1478
Vmoderate
p1479
sVdate
p1480
Vtonight
p1481
sVtype
p1482
Vcoffee shop
p1483
ssa(dp1484
Vrequest_slots
p1485
(dp1486
sVdiaact
p1487
Vrequest
p1488
sVinform_slots
p1489
(dp1490
Vcity
p1491
VTokyo
p1492
sVnumberofpeople
p1493
I2
sVhastv
p1494
Vtrue
p1495
sVfood
p1496
Vmodern european
p1497
sVhasinternet
p1498
Vtrue
p1499
sVpricerange
p1500
Vmoderate
p1501
sVdate
p1502
Vtoday
p1503
sVtype
p1504
Vrestaurant
p1505
ssa(dp1506
Vrequest_slots
p1507
(dp1508
Vdate
p1509
VUKN
p1510
sVcity
p1511
VUKN
p1512
sVaddr
p1513
VUKN
p1514
ssVdiaact
p1515
Vrequest
p1516
sVinform_slots
p1517
(dp1518
Vnumberofpeople
p1519
I8
sVhastv
p1520
Vfalse
p1521
sVfood
p1522
Vthai
p1523
sVhasinternet
p1524
Vtrue
p1525
sVpricerange
p1526
Vdontcare
p1527
sVtype
p1528
Vcoffee shop
p1529
ssa(dp1530
Vrequest_slots
p1531
(dp1532
Vdate
p1533
VUKN
p1534
sVcity
p1535
VUKN
p1536
sVaddr
p1537
VUKN
p1538
sVhastv
p1539
VUKN
p1540
ssVdiaact
p1541
Vrequest
p1542
sVinform_slots
p1543
(dp1544
Vfood
p1545
Veuropean
p1546
sVhasinternet
p1547
Vfalse
p1548
sVnumberofpeople
p1549
I8
sVpricerange
p1550
Vexpensive
p1551
sVtype
p1552
Vrestaurant
p1553
ssa(dp1554
Vrequest_slots
p1555
(dp1556
Vdate
p1557
VUKN
p1558
sVpricerange
p1559
VUKN
p1560
sVaddr
p1561
VUKN
p1562
ssVdiaact
p1563
Vrequest
p1564
sVinform_slots
p1565
(dp1566
Vcity
p1567
VLisbon
p1568
sVnumberofpeople
p1569
I8
sVhastv
p1570
Vtrue
p1571
sVfood
p1572
Veuropean
p1573
sVhasinternet
p1574
Vtrue
p1575
sVtype
p1576
Vcoffee shop
p1577
ssa(dp1578
Vrequest_slots
p1579
(dp1580
Vdate
p1581
VUKN
p1582
sVcity
p1583
VUKN
p1584
sVhasinternet
p1585
VUKN
p1586
sVaddr
p1587
VUKN
p1588
sVhastv
p1589
VUKN
p1590
ssVdiaact
p1591
Vrequest
p1592
sVinform_slots
p1593
(dp1594
Vfood
p1595
Vgastropub
p1596
sVtype
p1597
Vpub
p1598
sVnumberofpeople
p1599
I8
sVpricerange
p1600
Vdontcare
p1601
ssa(dp1602
Vrequest_slots
p1603
(dp1604
Vfood
p1605
VUKN
p1606
sVaddr
p1607
VUKN
p1608
ssVdiaact
p1609
Vrequest
p1610
sVinform_slots
p1611
(dp1612
Vcity
p1613
VTokyo
p1614
sVnumberofpeople
p1615
I4
sVhastv
p1616
Vfalse
p1617
sVhasinternet
p1618
Vtrue
p1619
sVpricerange
p1620
Vexpensive
p1621
sVdate
p1622
Vtoday
p1623
sVtype
p1624
Vcoffee shop
p1625
ssa(dp1626
Vrequest_slots
p1627
(dp1628
Vcity
p1629
VUKN
p1630
sVaddr
p1631
VUKN
p1632
ssVdiaact
p1633
Vrequest
p1634
sVinform_slots
p1635
(dp1636
Vnumberofpeople
p1637
I1
sVhastv
p1638
Vtrue
p1639
sVfood
p1640
Vgastropub
p1641
sVhasinternet
p1642
Vfalse
p1643
sVpricerange
p1644
Vmoderate
p1645
sVdate
p1646
Vtomorrow
p1647
sVtype
p1648
Vrestaurant
p1649
ssa(dp1650
Vrequest_slots
p1651
(dp1652
Vpricerange
p1653
VUKN
p1654
sVaddr
p1655
VUKN
p1656
sVhastv
p1657
VUKN
p1658
ssVdiaact
p1659
Vrequest
p1660
sVinform_slots
p1661
(dp1662
Vcity
p1663
VTokyo
p1664
sVnumberofpeople
p1665
I2
sVfood
p1666
Vportuguese
p1667
sVhasinternet
p1668
Vtrue
p1669
sVdate
p1670
Vtonight
p1671
sVtype
p1672
Vcoffee shop
p1673
ssa(dp1674
Vrequest_slots
p1675
(dp1676
Vpricerange
p1677
VUKN
p1678
sVhasinternet
p1679
VUKN
p1680
sVaddr
p1681
VUKN
p1682
ssVdiaact
p1683
Vrequest
p1684
sVinform_slots
p1685
(dp1686
Vcity
p1687
VMumbai
p1688
sVnumberofpeople
p1689
I1
sVhastv
p1690
Vfalse
p1691
sVfood
p1692
Vchinese
p1693
sVdate
p1694
Vtoday
p1695
sVtype
p1696
Vcoffee shop
p1697
ssa(dp1698
Vrequest_slots
p1699
(dp1700
Vfood
p1701
VUKN
p1702
sVdate
p1703
VUKN
p1704
sVaddr
p1705
VUKN
p1706
sVhastv
p1707
VUKN
p1708
ssVdiaact
p1709
Vrequest
p1710
sVinform_slots
p1711
(dp1712
Vhasinternet
p1713
Vfalse
p1714
sVnumberofpeople
p1715
I1
sVpricerange
p1716
Vmoderate
p1717
sVcity
p1718
VMumbai
p1719
sVtype
p1720
Vpub
p1721
ssa(dp1722
Vrequest_slots
p1723
(dp1724
sVdiaact
p1725
Vrequest
p1726
sVinform_slots
p1727
(dp1728
Vcity
p1729
VLisbon
p1730
sVnumberofpeople
p1731
I1
sVhastv
p1732
Vfalse
p1733
sVfood
p1734
Vmodern european
p1735
sVhasinternet
p1736
Vfalse
p1737
sVpricerange
p1738
Vexpensive
p1739
sVdate
p1740
Vthis weekend
p1741
sVtype
p1742
Vpub
p1743
ssa(dp1744
Vrequest_slots
p1745
(dp1746
sVdiaact
p1747
Vrequest
p1748
sVinform_slots
p1749
(dp1750
Vcity
p1751
VMumbai
p1752
sVnumberofpeople
p1753
I2
sVhastv
p1754
Vtrue
p1755
sVfood
p1756
Vportuguese
p1757
sVhasinternet
p1758
Vtrue
p1759
sVpricerange
p1760
Vcheap
p1761
sVdate
p1762
Vtomorrow
p1763
sVtype
p1764
Vpub
p1765
ssa(dp1766
Vrequest_slots
p1767
(dp1768
Vfood
p1769
VUKN
p1770
sVdate
p1771
VUKN
p1772
sVhasinternet
p1773
VUKN
p1774
sVaddr
p1775
VUKN
p1776
ssVdiaact
p1777
Vrequest
p1778
sVinform_slots
p1779
(dp1780
Vtype
p1781
Vpub
p1782
sVnumberofpeople
p1783
I2
sVpricerange
p1784
Vmoderate
p1785
sVcity
p1786
VParis
p1787
sVhastv
p1788
Vfalse
p1789
ssa(dp1790
Vrequest_slots
p1791
(dp1792
Vfood
p1793
VUKN
p1794
sVhasinternet
p1795
VUKN
p1796
sVaddr
p1797
VUKN
p1798
ssVdiaact
p1799
Vrequest
p1800
sVinform_slots
p1801
(dp1802
Vcity
p1803
VTokyo
p1804
sVnumberofpeople
p1805
I1
sVhastv
p1806
Vtrue
p1807
sVpricerange
p1808
Vexpensive
p1809
sVdate
p1810
Vtoday
p1811
sVtype
p1812
Vrestaurant
p1813
ssa(dp1814
Vrequest_slots
p1815
(dp1816
sVdiaact
p1817
Vrequest
p1818
sVinform_slots
p1819
(dp1820
Vcity
p1821
VTokyo
p1822
sVnumberofpeople
p1823
I2
sVhastv
p1824
Vtrue
p1825
sVfood
p1826
Vitalian
p1827
sVhasinternet
p1828
Vfalse
p1829
sVpricerange
p1830
Vmoderate
p1831
sVdate
p1832
Vtomorrow night
p1833
sVtype
p1834
Vcoffee shop
p1835
ssa(dp1836
Vrequest_slots
p1837
(dp1838
sVdiaact
p1839
Vrequest
p1840
sVinform_slots
p1841
(dp1842
Vcity
p1843
VParis
p1844
sVnumberofpeople
p1845
I2
sVhastv
p1846
Vfalse
p1847
sVfood
p1848
Vkorean
p1849
sVhasinternet
p1850
Vtrue
p1851
sVpricerange
p1852
Vdontcare
p1853
sVdate
p1854
Vtomorrow night
p1855
sVtype
p1856
Vrestaurant
p1857
ssa(dp1858
Vrequest_slots
p1859
(dp1860
sVdiaact
p1861
Vrequest
p1862
sVinform_slots
p1863
(dp1864
Vcity
p1865
VParis
p1866
sVnumberofpeople
p1867
I6
sVhastv
p1868
Vtrue
p1869
sVfood
p1870
Vitalian
p1871
sVhasinternet
p1872
Vfalse
p1873
sVpricerange
p1874
Vcheap
p1875
sVdate
p1876
Vtomorrow night
p1877
sVtype
p1878
Vpub
p1879
ssa(dp1880
Vrequest_slots
p1881
(dp1882
Vdate
p1883
VUKN
p1884
sVpricerange
p1885
VUKN
p1886
sVhasinternet
p1887
VUKN
p1888
sVaddr
p1889
VUKN
p1890
sVhastv
p1891
VUKN
p1892
ssVdiaact
p1893
Vrequest
p1894
sVinform_slots
p1895
(dp1896
Vfood
p1897
Vchinese
p1898
sVcity
p1899
VLondon
p1900
sVnumberofpeople
p1901
I2
sVtype
p1902
Vrestaurant
p1903
ssa(dp1904
Vrequest_slots
p1905
(dp1906
Vpricerange
p1907
VUKN
p1908
sVaddr
p1909
VUKN
p1910
ssVdiaact
p1911
Vrequest
p1912
sVinform_slots
p1913
(dp1914
Vcity
p1915
VTokyo
p1916
sVnumberofpeople
p1917
I6
sVhastv
p1918
Vtrue
p1919
sVfood
p1920
Vportuguese
p1921
sVhasinternet
p1922
Vfalse
p1923
sVdate
p1924
Vtoday
p1925
sVtype
p1926
Vpub
p1927
ssa(dp1928
Vrequest_slots
p1929
(dp1930
sVdiaact
p1931
Vrequest
p1932
sVinform_slots
p1933
(dp1934
Vcity
p1935
VLondon
p1936
sVnumberofpeople
p1937
I4
sVhastv
p1938
Vtrue
p1939
sVfood
p1940
Vseafood
p1941
sVhasinternet
p1942
Vfalse
p1943
sVpricerange
p1944
Vexpensive
p1945
sVdate
p1946
Vtomorrow
p1947
sVtype
p1948
Vcoffee shop
p1949
ssa(dp1950
Vrequest_slots
p1951
(dp1952
Vfood
p1953
VUKN
p1954
sVdate
p1955
VUKN
p1956
sVaddr
p1957
VUKN
p1958
sVhastv
p1959
VUKN
p1960
ssVdiaact
p1961
Vrequest
p1962
sVinform_slots
p1963
(dp1964
Vhasinternet
p1965
Vfalse
p1966
sVnumberofpeople
p1967
I6
sVpricerange
p1968
Vmoderate
p1969
sVcity
p1970
VParis
p1971
sVtype
p1972
Vcoffee shop
p1973
ssa(dp1974
Vrequest_slots
p1975
(dp1976
sVdiaact
p1977
Vrequest
p1978
sVinform_slots
p1979
(dp1980
Vcity
p1981
VMumbai
p1982
sVnumberofpeople
p1983
I2
sVhastv
p1984
Vfalse
p1985
sVfood
p1986
Vmexican
p1987
sVhasinternet
p1988
Vtrue
p1989
sVpricerange
p1990
Vdontcare
p1991
sVdate
p1992
Vsunday
p1993
sVtype
p1994
Vpub
p1995
ssa(dp1996
Vrequest_slots
p1997
(dp1998
Vdate
p1999
VUKN
p2000
sVcity
p2001
VUKN
p2002
sVaddr
p2003
VUKN
p2004
sVhastv
p2005
VUKN
p2006
ssVdiaact
p2007
Vrequest
p2008
sVinform_slots
p2009
(dp2010
Vfood
p2011
Vthai
p2012
sVhasinternet
p2013
Vfalse
p2014
sVnumberofpeople
p2015
I8
sVpricerange
p2016
Vdontcare
p2017
sVtype
p2018
Vrestaurant
p2019
ssa(dp2020
Vrequest_slots
p2021
(dp2022
Vdate
p2023
VUKN
p2024
sVcity
p2025
VUKN
p2026
sVhasinternet
p2027
VUKN
p2028
sVaddr
p2029
VUKN
p2030
ssVdiaact
p2031
Vrequest
p2032
sVinform_slots
p2033
(dp2034
Vfood
p2035
Vasian oriental
p2036
sVtype
p2037
Vcoffee shop
p2038
sVnumberofpeople
p2039
I4
sVpricerange
p2040
Vmoderate
p2041
sVhastv
p2042
Vtrue
p2043
ssa(dp2044
Vrequest_slots
p2045
(dp2046
Vdate
p2047
VUKN
p2048
sVpricerange
p2049
VUKN
p2050
sVaddr
p2051
VUKN
p2052
ssVdiaact
p2053
Vrequest
p2054
sVinform_slots
p2055
(dp2056
Vcity
p2057
VParis
p2058
sVnumberofpeople
p2059
I4
sVhastv
p2060
Vtrue
p2061
sVfood
p2062
Vitalian
p2063
sVhasinternet
p2064
Vtrue
p2065
sVtype
p2066
Vrestaurant
p2067
ssa(dp2068
Vrequest_slots
p2069
(dp2070
Vfood
p2071
VUKN
p2072
sVdate
p2073
VUKN
p2074
sVhasinternet
p2075
VUKN
p2076
sVaddr
p2077
VUKN
p2078
sVhastv
p2079
VUKN
p2080
ssVdiaact
p2081
Vrequest
p2082
sVinform_slots
p2083
(dp2084
Vtype
p2085
Vcoffee shop
p2086
sVnumberofpeople
p2087
I6
sVpricerange
p2088
Vcheap
p2089
sVcity
p2090
VMumbai
p2091
ssa(dp2092
Vrequest_slots
p2093
(dp2094
Vdate
p2095
VUKN
p2096
sVcity
p2097
VUKN
p2098
sVaddr
p2099
VUKN
p2100
sVhastv
p2101
VUKN
p2102
ssVdiaact
p2103
Vrequest
p2104
sVinform_slots
p2105
(dp2106
Vfood
p2107
Vgastropub
p2108
sVhasinternet
p2109
Vtrue
p2110
sVnumberofpeople
p2111
I4
sVpricerange
p2112
Vdontcare
p2113
sVtype
p2114
Vrestaurant
p2115
ssa(dp2116
Vrequest_slots
p2117
(dp2118
Vcity
p2119
VUKN
p2120
sVaddr
p2121
VUKN
p2122
sVhastv
p2123
VUKN
p2124
ssVdiaact
p2125
Vrequest
p2126
sVinform_slots
p2127
(dp2128
Vnumberofpeople
p2129
I1
sVfood
p2130
Vmediterranean
p2131
sVhasinternet
p2132
Vtrue
p2133
sVpricerange
p2134
Vexpensive
p2135
sVdate
p2136
Vtomorrow night
p2137
sVtype
p2138
Vcoffee shop
p2139
ssa(dp2140
Vrequest_slots
p2141
(dp2142
sVdiaact
p2143
Vrequest
p2144
sVinform_slots
p2145
(dp2146
Vcity
p2147
VLondon
p2148
sVnumberofpeople
p2149
I6
sVhastv
p2150
Vtrue
p2151
sVfood
p2152
Vlebanese
p2153
sVhasinternet
p2154
Vtrue
p2155
sVpricerange
p2156
Vmoderate
p2157
sVdate
p2158
Vtonight
p2159
sVtype
p2160
Vpub
p2161
ssa(dp2162
Vrequest_slots
p2163
(dp2164
Vdate
p2165
VUKN
p2166
sVpricerange
p2167
VUKN
p2168
sVhasinternet
p2169
VUKN
p2170
sVaddr
p2171
VUKN
p2172
ssVdiaact
p2173
Vrequest
p2174
sVinform_slots
p2175
(dp2176
Vfood
p2177
Vvietnamese
p2178
sVcity
p2179
VParis
p2180
sVnumberofpeople
p2181
I6
sVtype
p2182
Vrestaurant
p2183
sVhastv
p2184
Vtrue
p2185
ssa(dp2186
Vrequest_slots
p2187
(dp2188
Vfood
p2189
VUKN
p2190
sVdate
p2191
VUKN
p2192
sVaddr
p2193
VUKN
p2194
ssVdiaact
p2195
Vrequest
p2196
sVinform_slots
p2197
(dp2198
Vcity
p2199
VLondon
p2200
sVnumberofpeople
p2201
I2
sVhastv
p2202
Vfalse
p2203
sVhasinternet
p2204
Vfalse
p2205
sVpricerange
p2206
Vcheap
p2207
sVtype
p2208
Vpub
p2209
ssa(dp2210
Vrequest_slots
p2211
(dp2212
sVdiaact
p2213
Vrequest
p2214
sVinform_slots
p2215
(dp2216
Vcity
p2217
VNew York
p2218
sVnumberofpeople
p2219
I6
sVhastv
p2220
Vtrue
p2221
sVfood
p2222
Vasian oriental
p2223
sVhasinternet
p2224
Vtrue
p2225
sVpricerange
p2226
Vmoderate
p2227
sVdate
p2228
Vtomorrow night
p2229
sVtype
p2230
Vcoffee shop
p2231
ssa(dp2232
Vrequest_slots
p2233
(dp2234
sVdiaact
p2235
Vrequest
p2236
sVinform_slots
p2237
(dp2238
Vcity
p2239
VLondon
p2240
sVnumberofpeople
p2241
I8
sVhastv
p2242
Vfalse
p2243
sVfood
p2244
Vindian
p2245
sVhasinternet
p2246
Vfalse
p2247
sVpricerange
p2248
Vmoderate
p2249
sVdate
p2250
Vsunday
p2251
sVtype
p2252
Vrestaurant
p2253
ssa(dp2254
Vrequest_slots
p2255
(dp2256
sVdiaact
p2257
Vrequest
p2258
sVinform_slots
p2259
(dp2260
Vcity
p2261
VNew York
p2262
sVnumberofpeople
p2263
I8
sVhastv
p2264
Vfalse
p2265
sVfood
p2266
Vportuguese
p2267
sVhasinternet
p2268
Vtrue
p2269
sVpricerange
p2270
Vdontcare
p2271
sVdate
p2272
Vtomorrow
p2273
sVtype
p2274
Vpub
p2275
ssa(dp2276
Vrequest_slots
p2277
(dp2278
Vfood
p2279
VUKN
p2280
sVhasinternet
p2281
VUKN
p2282
sVaddr
p2283
VUKN
p2284
sVhastv
p2285
VUKN
p2286
ssVdiaact
p2287
Vrequest
p2288
sVinform_slots
p2289
(dp2290
Vdate
p2291
Vtonight
p2292
sVtype
p2293
Vcoffee shop
p2294
sVnumberofpeople
p2295
I6
sVpricerange
p2296
Vcheap
p2297
sVcity
p2298
VTokyo
p2299
ssa(dp2300
Vrequest_slots
p2301
(dp2302
sVdiaact
p2303
Vrequest
p2304
sVinform_slots
p2305
(dp2306
Vcity
p2307
VParis
p2308
sVnumberofpeople
p2309
I4
sVhastv
p2310
Vfalse
p2311
sVfood
p2312
Veuropean
p2313
sVhasinternet
p2314
Vfalse
p2315
sVpricerange
p2316
Vcheap
p2317
sVdate
p2318
Vtomorrow
p2319
sVtype
p2320
Vpub
p2321
ssa(dp2322
Vrequest_slots
p2323
(dp2324
Vpricerange
p2325
VUKN
p2326
sVaddr
p2327
VUKN
p2328
sVhastv
p2329
VUKN
p2330
ssVdiaact
p2331
Vrequest
p2332
sVinform_slots
p2333
(dp2334
Vcity
p2335
VLondon
p2336
sVnumberofpeople
p2337
I6
sVfood
p2338
Vindian
p2339
sVhasinternet
p2340
Vtrue
p2341
sVdate
p2342
Vtoday
p2343
sVtype
p2344
Vpub
p2345
ssa(dp2346
Vrequest_slots
p2347
(dp2348
Vpricerange
p2349
VUKN
p2350
sVaddr
p2351
VUKN
p2352
ssVdiaact
p2353
Vrequest
p2354
sVinform_slots
p2355
(dp2356
Vcity
p2357
VLondon
p2358
sVnumberofpeople
p2359
I2
sVhastv
p2360
Vfalse
p2361
sVfood
p2362
Vchinese
p2363
sVhasinternet
p2364
Vfalse
p2365
sVdate
p2366
Vtonight
p2367
sVtype
p2368
Vcoffee shop
p2369
ssa(dp2370
Vrequest_slots
p2371
(dp2372
Vpricerange
p2373
VUKN
p2374
sVhasinternet
p2375
VUKN
p2376
sVaddr
p2377
VUKN
p2378
ssVdiaact
p2379
Vrequest
p2380
sVinform_slots
p2381
(dp2382
Vcity
p2383
VParis
p2384
sVnumberofpeople
p2385
I8
sVhastv
p2386
Vtrue
p2387
sVfood
p2388
Vitalian
p2389
sVdate
p2390
Vtoday
p2391
sVtype
p2392
Vcoffee shop
p2393
ssa(dp2394
Vrequest_slots
p2395
(dp2396
Vcity
p2397
VUKN
p2398
sVaddr
p2399
VUKN
p2400
sVhastv
p2401
VUKN
p2402
ssVdiaact
p2403
Vrequest
p2404
sVinform_slots
p2405
(dp2406
Vnumberofpeople
p2407
I6
sVfood
p2408
Vvietnamese
p2409
sVhasinternet
p2410
Vtrue
p2411
sVpricerange
p2412
Vdontcare
p2413
sVdate
p2414
Vtoday
p2415
sVtype
p2416
Vrestaurant
p2417
ssa(dp2418
Vrequest_slots
p2419
(dp2420
sVdiaact
p2421
Vrequest
p2422
sVinform_slots
p2423
(dp2424
Vcity
p2425
VParis
p2426
sVnumberofpeople
p2427
I1
sVhastv
p2428
Vfalse
p2429
sVfood
p2430
Vthai
p2431
sVhasinternet
p2432
Vfalse
p2433
sVpricerange
p2434
Vdontcare
p2435
sVdate
p2436
Vtomorrow night
p2437
sVtype
p2438
Vrestaurant
p2439
ssa(dp2440
Vrequest_slots
p2441
(dp2442
Vfood
p2443
VUKN
p2444
sVhasinternet
p2445
VUKN
p2446
sVaddr
p2447
VUKN
p2448
ssVdiaact
p2449
Vrequest
p2450
sVinform_slots
p2451
(dp2452
Vcity
p2453
VLondon
p2454
sVnumberofpeople
p2455
I6
sVhastv
p2456
Vfalse
p2457
sVpricerange
p2458
Vmoderate
p2459
sVdate
p2460
Vtonight
p2461
sVtype
p2462
Vpub
p2463
ssa(dp2464
Vrequest_slots
p2465
(dp2466
sVdiaact
p2467
Vrequest
p2468
sVinform_slots
p2469
(dp2470
Vcity
p2471
VLisbon
p2472
sVnumberofpeople
p2473
I6
sVhastv
p2474
Vfalse
p2475
sVfood
p2476
Vturkish
p2477
sVhasinternet
p2478
Vfalse
p2479
sVpricerange
p2480
Vexpensive
p2481
sVdate
p2482
Vtomorrow
p2483
sVtype
p2484
Vcoffee shop
p2485
ssa(dp2486
Vrequest_slots
p2487
(dp2488
Vpricerange
p2489
VUKN
p2490
sVaddr
p2491
VUKN
p2492
ssVdiaact
p2493
Vrequest
p2494
sVinform_slots
p2495
(dp2496
Vcity
p2497
VMumbai
p2498
sVnumberofpeople
p2499
I4
sVhastv
p2500
Vtrue
p2501
sVfood
p2502
Vchinese
p2503
sVhasinternet
p2504
Vfalse
p2505
sVdate
p2506
Vtomorrow
p2507
sVtype
p2508
Vcoffee shop
p2509
ssa(dp2510
Vrequest_slots
p2511
(dp2512
sVdiaact
p2513
Vrequest
p2514
sVinform_slots
p2515
(dp2516
Vcity
p2517
VTokyo
p2518
sVnumberofpeople
p2519
I6
sVhastv
p2520
Vfalse
p2521
sVfood
p2522
Vvietnamese
p2523
sVhasinternet
p2524
Vtrue
p2525
sVpricerange
p2526
Vcheap
p2527
sVdate
p2528
Vtoday
p2529
sVtype
p2530
Vcoffee shop
p2531
ssa(dp2532
Vrequest_slots
p2533
(dp2534
Vcity
p2535
VUKN
p2536
sVhasinternet
p2537
VUKN
p2538
sVaddr
p2539
VUKN
p2540
ssVdiaact
p2541
Vrequest
p2542
sVinform_slots
p2543
(dp2544
Vnumberofpeople
p2545
I4
sVhastv
p2546
Vfalse
p2547
sVfood
p2548
Vportuguese
p2549
sVpricerange
p2550
Vdontcare
p2551
sVdate
p2552
Vtomorrow
p2553
sVtype
p2554
Vrestaurant
p2555
ssa(dp2556
Vrequest_slots
p2557
(dp2558
Vdate
p2559
VUKN
p2560
sVcity
p2561
VUKN
p2562
sVaddr
p2563
VUKN
p2564
sVhastv
p2565
VUKN
p2566
ssVdiaact
p2567
Vrequest
p2568
sVinform_slots
p2569
(dp2570
Vfood
p2571
Vkorean
p2572
sVhasinternet
p2573
Vtrue
p2574
sVnumberofpeople
p2575
I2
sVpricerange
p2576
Vdontcare
p2577
sVtype
p2578
Vpub
p2579
ssa(dp2580
Vrequest_slots
p2581
(dp2582
Vcity
p2583
VUKN
p2584
sVaddr
p2585
VUKN
p2586
sVhastv
p2587
VUKN
p2588
ssVdiaact
p2589
Vrequest
p2590
sVinform_slots
p2591
(dp2592
Vnumberofpeople
p2593
I6
sVfood
p2594
Vmodern european
p2595
sVhasinternet
p2596
Vfalse
p2597
sVpricerange
p2598
Vmoderate
p2599
sVdate
p2600
Vtoday
p2601
sVtype
p2602
Vrestaurant
p2603
ssa(dp2604
Vrequest_slots
p2605
(dp2606
Vfood
p2607
VUKN
p2608
sVdate
p2609
VUKN
p2610
sVaddr
p2611
VUKN
p2612
sVhastv
p2613
VUKN
p2614
ssVdiaact
p2615
Vrequest
p2616
sVinform_slots
p2617
(dp2618
Vhasinternet
p2619
Vtrue
p2620
sVnumberofpeople
p2621
I6
sVpricerange
p2622
Vmoderate
p2623
sVcity
p2624
VMumbai
p2625
sVtype
p2626
Vpub
p2627
ssa(dp2628
Vrequest_slots
p2629
(dp2630
Vfood
p2631
VUKN
p2632
sVdate
p2633
VUKN
p2634
sVhasinternet
p2635
VUKN
p2636
sVaddr
p2637
VUKN
p2638
sVhastv
p2639
VUKN
p2640
ssVdiaact
p2641
Vrequest
p2642
sVinform_slots
p2643
(dp2644
Vtype
p2645
Vpub
p2646
sVnumberofpeople
p2647
I1
sVpricerange
p2648
Vcheap
p2649
sVcity
p2650
VParis
p2651
ssa(dp2652
Vrequest_slots
p2653
(dp2654
sVdiaact
p2655
Vrequest
p2656
sVinform_slots
p2657
(dp2658
Vcity
p2659
VLisbon
p2660
sVnumberofpeople
p2661
I8
sVhastv
p2662
Vfalse
p2663
sVfood
p2664
Vinternational
p2665
sVhasinternet
p2666
Vfalse
p2667
sVpricerange
p2668
Vcheap
p2669
sVdate
p2670
Vsunday
p2671
sVtype
p2672
Vpub
p2673
ssa(dp2674
Vrequest_slots
p2675
(dp2676
Vfood
p2677
VUKN
p2678
sVhasinternet
p2679
VUKN
p2680
sVaddr
p2681
VUKN
p2682
sVhastv
p2683
VUKN
p2684
ssVdiaact
p2685
Vrequest
p2686
sVinform_slots
p2687
(dp2688
Vdate
p2689
Vtoday
p2690
sVtype
p2691
Vpub
p2692
sVnumberofpeople
p2693
I8
sVpricerange
p2694
Vmoderate
p2695
sVcity
p2696
VMumbai
p2697
ssa(dp2698
Vrequest_slots
p2699
(dp2700
sVdiaact
p2701
Vrequest
p2702
sVinform_slots
p2703
(dp2704
Vcity
p2705
VLisbon
p2706
sVnumberofpeople
p2707
I6
sVhastv
p2708
Vfalse
p2709
sVfood
p2710
Vvietnamese
p2711
sVhasinternet
p2712
Vtrue
p2713
sVpricerange
p2714
Vdontcare
p2715
sVdate
p2716
Vtoday
p2717
sVtype
p2718
Vcoffee shop
p2719
ssa(dp2720
Vrequest_slots
p2721
(dp2722
Vfood
p2723
VUKN
p2724
sVdate
p2725
VUKN
p2726
sVaddr
p2727
VUKN
p2728
ssVdiaact
p2729
Vrequest
p2730
sVinform_slots
p2731
(dp2732
Vcity
p2733
VTokyo
p2734
sVnumberofpeople
p2735
I4
sVhastv
p2736
Vfalse
p2737
sVhasinternet
p2738
Vfalse
p2739
sVpricerange
p2740
Vmoderate
p2741
sVtype
p2742
Vpub
p2743
ssa(dp2744
Vrequest_slots
p2745
(dp2746
sVdiaact
p2747
Vrequest
p2748
sVinform_slots
p2749
(dp2750
Vcity
p2751
VMumbai
p2752
sVnumberofpeople
p2753
I6
sVhastv
p2754
Vtrue
p2755
sVfood
p2756
Vnorth american
p2757
sVhasinternet
p2758
Vtrue
p2759
sVpricerange
p2760
Vcheap
p2761
sVdate
p2762
Vsunday
p2763
sVtype
p2764
Vrestaurant
p2765
ssa(dp2766
Vrequest_slots
p2767
(dp2768
sVdiaact
p2769
Vrequest
p2770
sVinform_slots
p2771
(dp2772
Vcity
p2773
VNew York
p2774
sVnumberofpeople
p2775
I2
sVhastv
p2776
Vtrue
p2777
sVfood
p2778
Vasian oriental
p2779
sVhasinternet
p2780
Vtrue
p2781
sVpricerange
p2782
Vmoderate
p2783
sVdate
p2784
Vtomorrow night
p2785
sVtype
p2786
Vcoffee shop
p2787
ssa(dp2788
Vrequest_slots
p2789
(dp2790
sVdiaact
p2791
Vrequest
p2792
sVinform_slots
p2793
(dp2794
Vcity
p2795
VLondon
p2796
sVnumberofpeople
p2797
I1
sVhastv
p2798
Vtrue
p2799
sVfood
p2800
Vfrench
p2801
sVhasinternet
p2802
Vtrue
p2803
sVpricerange
p2804
Vdontcare
p2805
sVdate
p2806
Vtomorrow night
p2807
sVtype
p2808
Vrestaurant
p2809
ssa.