(dp1
L0L
(dp2
Vdate
p3
Vtomorrow
p4
sVcity
p5
Vhamilton
p6
sVtheater
p7
Vmanville 12 plex
p8
sVmoviename
p9
Vzootopia
p10
sVstarttime
p11
V10:30am
p12
ssL1L
(dp13
g3
g4
sg9
g10
sg7
g8
sg11
g12
ssL2L
(dp14
g3
g4
sg5
Vbridgewater
p15
sg7
g8
sg9
g10
sg11
g12
ssL3L
(dp16
g3
g4
sg5
g6
sg7
Vamc dine-in theatres bridgewater 7
p17
sg9
g10
sg11
g12
ssL4L
(dp18
g3
g4
sg5
Vmanville
p19
sg7
g17
sg9
g10
sg11
g12
ssL5L
(dp20
Vdate
p21
Vthis weekend
p22
sVcity
p23
Vseattle
p24
sVtheater
p25
Vevery single theatre
p26
sVmoviename
p27
Vkung fu panda 3
p28
ssL6L
(dp29
g21
g22
sg23
Vbellevue
p30
sg25
g26
sg27
g28
ssL7L
(dp31
g21
g22
sg23
g24
sg25
Vbellevue lincoln square cinemas
p32
sg27
g28
ssL8L
(dp33
g21
g22
sg23
g30
sg25
g32
sg27
g28
ssL9L
(dp34
g21
g22
sg23
g24
sg25
Vregal meridian 16
p35
sg27
g28
ssL10L
(dp36
Vcity
p37
Vseattle
p38
sVtheater
p39
Vregal meridian 16
p40
sVnumberofkids
p41
Vtwo
p42
sVdate
p43
Vtonight
p44
sVstarttime
p45
V6:30pm
p46
sVtheater_chain
p47
Vregal meridian
p48
sVmoviename
p49
Vzootopia
p50
ssL11L
(dp51
g37
Vbellevue
p52
sg39
g40
sg41
g42
sg43
g44
sg45
g46
sg47
g48
sg49
g50
ssL12L
(dp53
g37
g38
sg39
Vbellevue lincoln square cinemas
p54
sg41
g42
sg43
g44
sg45
g46
sg47
g48
sg49
g50
ssL13L
(dp55
g37
g52
sg39
g54
sg41
g42
sg43
g44
sg45
g46
sg47
g48
sg49
g50
ssL14L
(dp56
g37
g38
sg39
Vregal meridian
p57
sg41
g42
sg43
g44
sg45
g46
sg47
g48
sg49
g50
ssL15L
(dp58
Vdate
p59
Vtoday
p60
sVcity
p61
Vbirmingham
p62
sVtheater
p63
Vcarmike summit 16
p64
sVmoviename
p65
Vzootopia
p66
sVstarttime
p67
Varound 2pm
p68
ssL16L
(dp69
g59
g60
sg61
g62
sg63
Vcarmike summit
p70
sg65
g66
sg67
g68
ssL17L
(dp71
g59
g60
sg61
g62
sg63
g64
sg65
g66
sg67
V1:30
p72
ssL18L
(dp73
g59
g60
sg61
g62
sg63
g70
sg65
g66
sg67
g72
ssL19L
(dp74
g59
g60
sg61
g62
sg63
g64
sg65
g66
sg67
V4:00
p75
ssL20L
(dp76
Vdate
p77
Vtomorrow
p78
sVcity
p79
Vsan francisco
p80
sVmoviename
p81
VHow to be single
p82
sVtheater
p83
Vcentury centre 9
p84
sVstarttime
p85
Vnight
p86
ssL21L
(dp87
g77
g78
sg79
g80
sg81
g82
sg83
VRedwood City 20
p88
sg85
g86
ssL22L
(dp89
g77
g78
sg79
g80
sg81
g82
sg83
g84
sg85
V11:05am
p90
ssL23L
(dp91
g77
g78
sg79
g80
sg81
g82
sg83
g88
sg85
g90
ssL24L
(dp92
g77
g78
sg79
g80
sg81
g82
sg83
g84
sg85
V1:45pm
p93
ssL25L
(dp94
Vdate
p95
Vtonight
p96
sVcity
p97
Vseattle
p98
sVtheater
p99
Vmany
p100
sVmoviename
p101
Vlondon has fallen
p102
sVstarttime
p103
Vlatest showing
p104
ssL26L
(dp105
g95
g96
sg97
g98
sg99
Vregal meridian 16
p106
sg101
g102
sg103
g104
ssL27L
(dp107
g95
g96
sg97
g98
sg99
g100
sg101
Vwhiskey tango foxtrot
p108
sg103
g104
ssL28L
(dp109
g95
g96
sg97
g98
sg99
g106
sg101
g108
sg103
g104
ssL29L
(dp110
g95
g96
sg97
g98
sg99
g100
sg101
Vzootopia
p111
sg103
g104
ssL30L
(dp112
Vdate
p113
Vtomorrow
p114
sVcity
p115
Vseattle
p116
sVtheater
p117
Vamc pacific place 11
p118
sVmoviename
p119
Vdeadpool
p120
sVstarttime
p121
V9:00 pm
p122
ssL31L
(dp123
Vdate
p124
Vtoday
p125
sVcity
p126
Vbirmingham
p127
sVtheater
p128
Vcarmike summit 16
p129
sVmoviename
p130
Vdeadpool
p131
sVstarttime
p132
Varound 6pm
p133
ssL32L
(dp134
g124
g125
sg126
g127
sg128
g129
sg130
g131
sg132
V7:20
p135
ssL33L
(dp136
Vdate
p137
Vtomorrow
p138
sVcity
p139
Vseattle
p140
sVtheater
p141
Vregal meridian 16
p142
sVmoviename
p143
Vzootopia
p144
sVstarttime
p145
V9:10 pm
p146
ssL34L
(dp147
Vdate
p148
Vtomorrow
p149
sVcity
p150
Vseattle
p151
sVtheater
p152
Vregal meridian 16
p153
sVmoviename
p154
Vhail caesar
p155
sVstarttime
p156
V8:45 pm
p157
ssL35L
(dp158
g148
g149
sg150
g151
sg152
g153
sg154
g155
sg156
V8:45
p159
ssL36L
(dp160
Vdate
p161
Vfriday
p162
sVcity
p163
Vportland
p164
sVtheater
p165
Vregal lloyd center 10
p166
sVmoviename
p167
Vstar wars
p168
sVstarttime
p169
V10 pm
p170
ssL37L
(dp171
g161
g162
sg163
g164
sg165
g166
sg167
g168
sg169
V9:50 pm
p172
ssL38L
(dp173
Vcity
p174
Vbirmingham
p175
sVtheater
p176
Vcarmike 16
p177
sVvideo_format
p178
V3d
p179
sVstarttime
p180
Varound 3 pm
p181
sVdate
p182
Vtomorrow
p183
sVmoviename
p184
Vzootopia
p185
ssL39L
(dp186
g174
g175
sg176
g177
sg178
Vstandard
p187
sg180
g181
sg182
g183
sg184
g185
ssL40L
(dp188
g174
g175
sg176
g177
sg178
g179
sg180
V12pm
p189
sg182
g183
sg184
g185
ssL41L
(dp190
g174
g175
sg176
g177
sg178
g187
sg180
g189
sg182
g183
sg184
g185
ssL42L
(dp191
g174
g175
sg176
g177
sg178
g179
sg180
g181
sg182
g183
sg184
V kung fu panda 3
p192
ssL43L
(dp193
Vdate
p194
Vtomorrow
p195
sVcity
p196
Vseattle
p197
sVtheater
p198
Vamc pacific place 11 theater
p199
sVmoviename
p200
Vroom
p201
sVstarttime
p202
V9:30 pm
p203
ssL44L
(dp204
Vtheater_chain
p205
Vamc
p206
sVtheater
p207
Vriver east 21
p208
sVvideo_format
p209
V2d
p210
sVstarttime
p211
Vnight
p212
sVdate
p213
Vsaturday
p214
sVmoviename
p215
Vzootopia
p216
ssL45L
(dp217
g205
g206
sg207
g208
sg209
V3d
p218
sg211
g212
sg213
g214
sg215
g216
ssL46L
(dp219
g205
g206
sg207
g208
sg209
g210
sg211
g212
sg213
Vtomorrow
p220
sg215
g216
ssL47L
(dp221
g205
g206
sg207
g208
sg209
g218
sg211
g212
sg213
g220
sg215
g216
ssL48L
(dp222
g205
g206
sg207
g208
sg209
g210
sg211
V6pm
p223
sg213
g214
sg215
g216
ssL49L
(dp224
Vdate
p225
Vtomorrow
p226
sVcity
p227
Vseattle
p228
sVtheater
p229
Vregal meridian 16
p230
sVmoviename
p231
Vthe witch
p232
sVstarttime
p233
V9:30 pm
p234
ssL50L
(dp235
Vdate
p236
V3/11
p237
sVcity
p238
Vroyal oak
p239
sVtheater
p240
Vemagine theater
p241
sVmoviename
p242
Vdeadpool
p243
sVstarttime
p244
V10:05am#12:30pm#2:55pm#5:30pm#8:00pm#10:40pm
p245
ssL51L
(dp246
g236
g237
sg238
VRoyal Oak
p247
sg240
g241
sg242
g243
sg244
g245
ssL52L
(dp248
g236
g237
sg238
Vmadison heights
p249
sg240
g241
sg242
g243
sg244
g245
ssL53L
(dp250
g236
g237
sg238
g239
sg240
Vemagine
p251
sg242
g243
sg244
g245
ssL54L
(dp252
g236
g237
sg238
g247
sg240
g251
sg242
g243
sg244
g245
ssL55L
(dp253
Vcity
p254
Vdetroit
p255
sVmoviename
p256
Vindependce day
p257
sVstarttime
p258
V7pm
p259
ssL56L
(dp260
Vdate
p261
Vnow
p262
sVcity
p263
Vdes moines
p264
sVtheater
p265
Vany
p266
sVmoviename
p267
Vzootopia#kung fu panda 3
p268
sVstarttime
p269
Varound 7pm
p270
ssL57L
(dp271
g261
g262
sg263
g264
sg265
VFLIX BREWHOUSE DES MOINES
p272
sg267
g268
sg269
g270
ssL58L
(dp273
g261
g262
sg263
g264
sg265
VCARMIKE COBBLESTONE 9
p274
sg267
g268
sg269
g270
ssL59L
(dp275
g261
Vtomorrow
p276
sg263
g264
sg265
g266
sg267
g268
sg269
g270
ssL60L
(dp277
g261
g276
sg263
g264
sg265
g272
sg267
g268
sg269
g270
ssL61L
(dp278
Vcity
p279
Vjohnstown
p280
sVtheater
p281
Vcinemas
p282
sVvideo_format
p283
Vstandard/2D version
p284
sVstarttime
p285
Vearliest showing
p286
sVdate
p287
Vtomorrow afternoon
p288
sVmoviename
p289
Vzootopia
p290
ssL62L
(dp291
g279
g280
sg281
g282
sg283
V3d
p292
sg285
g286
sg287
g288
sg289
g290
ssL63L
(dp293
g279
g280
sg281
g282
sg283
Vstandard
p294
sg285
g286
sg287
g288
sg289
g290
ssL64L
(dp295
g279
g280
sg281
g282
sg283
g284
sg285
V12:45pm
p296
sg287
g288
sg289
g290
ssL65L
(dp297
g279
g280
sg281
g282
sg283
g292
sg285
g296
sg287
g288
sg289
g290
ssL66L
(dp298
Vdate
p299
Vtomorrow
p300
sVcity
p301
Vseattle
p302
sVtheater
p303
Vregal meridian 16
p304
sVmoviename
p305
Vthe witch
p306
sVstarttime
p307
V9:30 pm
p308
ssL67L
(dp309
Vmoviename
p310
VDeadpool
p311
sVactor
p312
Vryan reynolds
p313
ssL68L
(dp314
g310
g311
sg312
g313
ssL69L
(dp315
g310
g311
sg312
g313
ssL70L
(dp316
g310
g311
sg312
g313
ssL71L
(dp317
g310
VLondon has fallen
p318
sg312
g313
ssL72L
(dp319
Vdate
p320
Vmarch 12
p321
sVcity
p322
Vvisalia
p323
sVtheater
p324
Vregal visalia stadium 10
p325
sVmoviename
p326
Vlondon has fallen
p327
sVstarttime
p328
V12:35pm
p329
ssL73L
(dp330
g320
g321
sg322
g323
sg324
g325
sg326
g327
sg328
V 4:05pm
p331
ssL74L
(dp332
g320
g321
sg322
g323
sg324
g325
sg326
g327
sg328
V 7:05pm
p333
ssL75L
(dp334
g320
g321
sg322
g323
sg324
g325
sg326
g327
sg328
V 9:55pm
p335
ssL76L
(dp336
g320
g321
sg322
g323
sg324
g325
sg326
g327
sg328
V7:05 pm
p337
ssL77L
(dp338
sL78L
(dp339
Vdate
p340
VFriday
p341
sVcity
p342
Vseattle
p343
sVtheater
p344
Vamc pacific place 11
p345
sVmoviename
p346
V10 cloverfield lane
p347
sVstarttime
p348
Vnight
p349
ssL79L
(dp350
g340
g341
sg342
Vbellevue
p351
sg344
g345
sg346
g347
sg348
g349
ssL80L
(dp352
g340
g341
sg342
g343
sg344
Vbellevue lincoln square cinemas
p353
sg346
g347
sg348
g349
ssL81L
(dp354
g340
g341
sg342
g351
sg344
g353
sg346
g347
sg348
g349
ssL82L
(dp355
g340
g341
sg342
g343
sg344
g345
sg346
g347
sg348
g349
ssL83L
(dp356
Vdate
p357
Vsaturday
p358
sVcity
p359
Vboston
p360
sVtheater
p361
Vamc loews boston common 19
p362
sVmoviename
p363
Vlolo
p364
sVstarttime
p365
V8pm
p366
ssL84L
(dp367
g357
g358
sg359
g360
sg361
g362
sg363
g364
sg365
V8:20
p368
ssL85L
(dp369
g357
g358
sg359
g360
sg361
g362
sg363
Vdeadpool
p370
sg365
g366
ssL86L
(dp371
g357
g358
sg359
g360
sg361
g362
sg363
g370
sg365
g368
ssL87L
(dp372
Vcity
p373
Vbellevue
p374
sVtheater
p375
Vbellevue lincoln square cinemas
p376
sVactor
p377
Vryan reynolds
p378
sVstarttime
p379
V8:15pm
p380
sVdate
p381
Vtonight
p382
sVmoviename
p383
Vdeadpool
p384
ssL88L
(dp385
g373
g374
sg375
Vamc pacific place 11
p386
sg377
g378
sg379
g380
sg381
g382
sg383
g384
ssL89L
(dp387
g373
g374
sg375
g376
sg377
g378
sg379
g380
sg381
g382
sg383
g384
ssL90L
(dp388
g373
g374
sg375
g386
sg377
g378
sg379
g380
sg381
g382
sg383
g384
ssL91L
(dp389
Vdate
p390
Vtonight
p391
sVcity
p392
Vseattle
p393
sVtheater
p394
Vamc pacific place 11
p395
sVmoviename
p396
Vhow to be single
p397
sVstarttime
p398
Vbetween 9 and 10
p399
ssL92L
(dp400
g390
g391
sg392
g393
sg394
g395
sg396
g397
sg398
g399
ssL93L
(dp401
g390
g391
sg392
g393
sg394
g395
sg396
g397
sg398
V7:20
p402
ssL94L
(dp403
g390
g391
sg392
g393
sg394
g395
sg396
g397
sg398
g402
ssL95L
(dp404
g390
g391
sg392
g393
sg394
g395
sg396
g397
sg398
V10:20
p405
ssL96L
(dp406
Vdate
p407
Vtuesday
p408
sVcity
p409
Vcarbondale
p410
sVtheater
p411
Vamc showplace carbondale 8
p412
sVmoviename
p413
Vthe witch#the other side of the door#the boy
p414
sVstarttime
p415
Vnight
p416
ssL97L
(dp417
g407
g408
sg409
g410
sg411
g412
sg413
g414
sg415
Vafter 7pm
p418
ssL98L
(dp419
g407
g408
sg409
g410
sg411
g412
sg413
g414
sg415
V4:40 pm
p420
ssL99L
(dp421
g407
g408
sg409
g410
sg411
g412
sg413
g414
sg415
Vbefore dinner
p422
ssL100L
(dp423
g407
g408
sg409
g410
sg411
g412
sg413
Vthe other side of the door
p424
sg415
g416
ssL101L
(dp425
Vdate
p426
Vtomorrow
p427
sVcity
p428
Vseattle
p429
sVtheater
p430
Vamc lowes oak tree
p431
sVmoviename
p432
Vtriple 9
p433
sVstarttime
p434
V7:10 pm
p435
ssL102L
(dp436
g426
g427
sg428
g429
sg430
Vamc lowes oak tree 6
p437
sg432
g433
sg434
g435
ssL103L
(dp438
Vdate
p439
Vtomorrow
p440
sVcity
p441
Vseattle
p442
sVtheater
p443
Vregal meridian 16
p444
sVmoviename
p445
Vzootopia
p446
sVstarttime
p447
V9:10 pm
p448
ssL104L
(dp449
Vtheater
p450
Vroyal oak emagine theater
p451
sVmoviename
p452
Vdeadpool
p453
sVstarttime
p454
Vbetwenn 8-10 pm
p455
ssL105L
(dp456
Vdate
p457
Vtoday
p458
sVcity
p459
Vbirmingham
p460
sVtheater
p461
Vcarmike summit 16
p462
sVmoviename
p463
Vdeadpool
p464
sVstarttime
p465
V4 pm
p466
ssL106L
(dp467
g457
g458
sg459
g460
sg461
g462
sg463
g464
sg465
V4:20
p468
ssL107L
(dp469
g457
g458
sg459
g460
sg461
g462
sg463
g464
sg465
V4:20pm
p470
ssL108L
(dp471
Vdate
p472
Vtonight
p473
sVcity
p474
Vlos angeles
p475
sVmoviename
p476
VThe Witch
p477
sVtheater
p478
VRegal LA LIVE Stadium 14
p479
sVstarttime
p480
Vfrom noon to 4pm
p481
ssL109L
(dp482
g472
g473
sg474
g475
sg476
g477
sg478
Vregal la live stadium
p483
sg480
g481
ssL110L
(dp484
g472
g473
sg474
g475
sg476
g477
sg478
g479
sg480
V8:30pm
p485
ssL111L
(dp486
g472
g473
sg474
g475
sg476
g477
sg478
g483
sg480
g485
ssL112L
(dp487
g472
g473
sg474
g475
sg476
g477
sg478
g479
sg480
V11:00pm
p488
ssL113L
(dp489
Vdate
p490
Vtomorrow
p491
sVcity
p492
Vseattle
p493
sVtheater
p494
Vregal meridian 16
p495
sVmoviename
p496
Vthe big short
p497
sVstarttime
p498
V8:45 pm
p499
ssL114L
(dp500
Vtheater
p501
VBig Picture
p502
ssL115L
(dp503
g501
g502
ssL116L
(dp504
g501
VCinerama
p505
ssL117L
(dp506
g501
g505
ssL118L
(dp507
g501
VCentral Cinema
p508
ssL119L
(dp509
Vdate
p510
Vtomorrow
p511
sVcity
p512
Vseattle
p513
sVtheater
p514
Vregal meridian 16
p515
sVmoviename
p516
Vthe big short
p517
sVstarttime
p518
V8:45 pm
p519
ssL120L
(dp520
Vdate
p521
Vtonight
p522
sVcity
p523
Vdetroit
p524
sVmoviename
p525
Vgods of egypt
p526
sVstarttime
p527
Varound 7pm
p528
ssL121L
(dp529
g521
g522
sg523
g524
sg525
g526
sg527
g528
ssL122L
(dp530
g521
g522
sg523
g524
sg525
Vstar wars
p531
sg527
g528
ssL123L
(dp532
g521
g522
sg523
g524
sg525
g531
sg527
g528
ssL124L
(dp533
Vdate
p534
Vtomorrow
p535
sVcity
p536
Vseattle
p537
sVtheater
p538
Vregal meridian 16
p539
sVmoviename
p540
Vzootopia
p541
sVstarttime
p542
V9:10 pm
p543
ssL125L
(dp544
Vcity
p545
Vstony brook
p546
sVnumberofkids
p547
V1
sVdate
p548
Vsaturday
p549
sVstarttime
p550
V Matinee
p551
sVtheater_chain
p552
Vamc loews stony brook 17
p553
sVmoviename
p554
V Young Messiah
p555
ssL126L
(dp556
g545
g546
sg547
V1
sg548
g549
sg550
V11:05am
p557
sg552
g553
sg554
g555
ssL127L
(dp558
g545
g546
sg547
V1
sg548
g549
sg550
V1:45pm
p559
sg552
g553
sg554
g555
ssL128L
(dp560
g545
g546
sg547
V1
sg548
g549
sg550
g551
sg552
g553
sg554
VThe Young Messiah
p561
ssL129L
(dp562
g545
g546
sg547
V1
sg548
g549
sg550
g557
sg552
g553
sg554
g561
ssL130L
(dp563
Vdate
p564
Vnext friday
p565
sVmoviename
p566
Veddie the eagle
p567
sVtheater
p568
Vcentury rowland plaza
p569
sVstarttime
p570
V4pm to 7pm
p571
ssL131L
(dp572
g564
g565
sg566
g567
sg568
Vthe century rowland plaza
p573
sg570
g571
ssL132L
(dp574
g564
g565
sg566
g567
sg568
g569
sg570
V4:20pm
p575
ssL133L
(dp576
g564
g565
sg566
g567
sg568
g573
sg570
g575
ssL134L
(dp577
g564
g565
sg566
g567
sg568
g569
sg570
V6:55pm
p578
ssL135L
(dp579
Vdate
p580
Vtomorrow
p581
sVtheater
p582
Vregency commerce 14
p583
sVmoviename
p584
Vrisen
p585
sVstarttime
p586
V11:50am
p587
ssL136L
(dp588
g580
g581
sg582
g583
sg584
g585
sg586
V2:30pm
p589
ssL137L
(dp590
g580
g581
sg582
g583
sg584
g585
sg586
V5:10
p591
ssL138L
(dp592
g580
g581
sg582
g583
sg584
g585
sg586
V7:50
p593
ssL139L
(dp594
g580
g581
sg582
g583
sg584
g585
sg586
V10:25
p595
ssL140L
(dp596
Vdate
p597
Vtomorrow
p598
sVcity
p599
Vseattle
p600
sVtheater
p601
Vregal meridian 16
p602
sVmoviename
p603
Vzoolander 2
p604
sVstarttime
p605
V9:25 pm
p606
ssL141L
(dp607
Vdate
p608
Vtomorrow
p609
sVcity
p610
Vseattle
p611
sVtheater
p612
Vamc pacific place 11 theater
p613
sVmoviename
p614
Vdeadpool
p615
sVstarttime
p616
V9:00 pm
p617
ssL142L
(dp618
Vdate
p619
Vsaturday
p620
sVcity
p621
Vseattle
p622
sVtheater
p623
Vmany
p624
sVmoviename
p625
Vzootopia
p626
sVstarttime
p627
Varound 2pm
p628
ssL143L
(dp629
g619
g620
sg621
g622
sg623
Vbellevue lincoln square cinemas
p630
sg625
g626
sg627
g628
ssL144L
(dp631
g619
g620
sg621
g622
sg623
Vbellevue lincoln square
p632
sg625
g626
sg627
g628
ssL145L
(dp633
g619
g620
sg621
g622
sg623
g624
sg625
g626
sg627
V2:35 pm
p634
ssL146L
(dp635
g619
g620
sg621
g622
sg623
g630
sg625
g626
sg627
g634
ssL147L
(dp636
Vdate
p637
Vtomorrow
p638
sVcity
p639
Vseattle
p640
sVtheater
p641
Vregal meridian 16
p642
sVmoviename
p643
Vthe witch
p644
sVstarttime
p645
V9:30 pm
p646
ssL148L
(dp647
Vcity
p648
Vtampa
p649
sVtheater
p650
Vamc west shore 14 210 Westshore Plaza
p651
sVvideo_format
p652
V3d
p653
sVstarttime
p654
Vafternoon
p655
sVdate
p656
Vsaturday
p657
sVmoviename
p658
Vzootopia
p659
ssL149L
(dp660
g648
g649
sg650
g651
sg652
Vstandard
p661
sg654
g655
sg656
g657
sg658
g659
ssL150L
(dp662
g648
g649
sg650
g651
sg652
g653
sg654
V10:00am
p663
sg656
g657
sg658
g659
ssL151L
(dp664
g648
g649
sg650
g651
sg652
g661
sg654
g663
sg656
g657
sg658
g659
ssL152L
(dp665
g648
g649
sg650
g651
sg652
g653
sg654
V12:45pm
p666
sg656
g657
sg658
g659
ssL153L
(dp667
Vdate
p668
Vweekend
p669
sVcity
p670
Vseattle
p671
sVtheater
p672
Vbellevue lincoln square cinemas
p673
sVmoviename
p674
Vzootopia
p675
sVstarttime
p676
V10:00am
p677
ssL154L
(dp678
g668
g669
sg670
Vbellevue
p679
sg672
g673
sg674
g675
sg676
g677
ssL155L
(dp680
g668
g669
sg670
g671
sg672
Vpacific science center imax theaters
p681
sg674
g675
sg676
g677
ssL156L
(dp682
g668
g669
sg670
g679
sg672
g681
sg674
g675
sg676
g677
ssL157L
(dp683
g668
g669
sg670
g671
sg672
g673
sg674
g675
sg676
g677
ssL158L
(dp684
Vdate
p685
Vsaturday
p686
sVcity
p687
Vbirmingham
p688
sVtheater
p689
Vcarmike summit 16
p690
sVmoviename
p691
Vzootopia
p692
sVstarttime
p693
V10:00am
p694
ssL159L
(dp695
g685
g686
sg687
Vhoover
p696
sg689
g690
sg691
g692
sg693
g694
ssL160L
(dp697
g685
g686
sg687
g688
sg689
Vcarmike patton creek
p698
sg691
g692
sg693
g694
ssL161L
(dp699
g685
g686
sg687
g696
sg689
g698
sg691
g692
sg693
g694
ssL162L
(dp700
g685
g686
sg687
g688
sg689
g690
sg691
g692
sg693
g694
ssL163L
(dp701
Vcity
p702
Vseattle
p703
sVmoviename
p704
Veddie the eagle
p705
sVtheater
p706
Vregal meridian sundance cinemas
p707
ssL164L
(dp708
g702
g703
sg704
Vthe big short
p709
sg706
g707
ssL165L
(dp710
g702
g703
sg704
g705
sg706
Vregal thornton place
p711
ssL166L
(dp712
g702
g703
sg704
g709
sg706
g711
ssL167L
(dp713
Vmoviename
p714
VAvengers
p715
ssL168L
(dp716
g714
VFinding Dory
p717
ssL169L
(dp718
Vcity
p719
VSacramento
p720
sVtheater
p721
VREGAL NATOMAS MARKETPLACE STADIUM 16 & RPX
p722
sVvideo_format
p723
V3d
p724
sVstarttime
p725
Vmorning
p726
sVdate
p727
Vtomorrow
p728
sVmoviename
p729
Vzoology
p730
ssL170L
(dp731
g719
g720
sg721
VRegal Natomas Marketplace
p732
sg723
g724
sg725
g726
sg727
g728
sg729
g730
ssL171L
(dp733
g719
g720
sg721
g722
sg723
Vstandard
p734
sg725
g726
sg727
g728
sg729
g730
ssL172L
(dp735
g719
g720
sg721
g732
sg723
g734
sg725
g726
sg727
g728
sg729
g730
ssL173L
(dp736
g719
g720
sg721
g722
sg723
VIMAX
p737
sg725
g726
sg727
g728
sg729
g730
ssL174L
(dp738
Vdate
p739
Vtonight
p740
sVcity
p741
Vseattle
p742
sVmoviename
p743
Vdeadpool
p744
sVtheater
p745
Vamc pacific place 11
p746
sVstarttime
p747
V10pm
p748
ssL175L
(dp749
g739
Vtomorrow
p750
sg741
g742
sg743
g744
sg745
g746
sg747
g748
ssL176L
(dp751
g739
g740
sg741
g742
sg743
g744
sg745
g746
sg747
V10:00 pm
p752
ssL177L
(dp753
g739
g750
sg741
g742
sg743
g744
sg745
g746
sg747
g752
ssL178L
(dp754
Vdate
p755
Vmarch 24th
p756
sVmoviename
p757
Vbatman
p758
ssL179L
(dp759
g755
Vopeningnight
p760
sg757
g758
ssL180L
(dp761
g755
V a different day
p762
sg757
g758
ssL181L
(dp763
g755
g756
sg757
Vbatman vs superman
p764
ssL182L
(dp765
g755
g760
sg757
g764
ssL183L
(dp766
Vdate
p767
Vtomorrow
p768
sVcity
p769
Vseattle
p770
sVtheater
p771
Vamc lowes oak tree 6
p772
sVmoviename
p773
Vrace
p774
sVstarttime
p775
V4:50 pm
p776
ssL184L
(dp777
Vcity
p778
Vhamilton
p779
sVtheater
p780
Vamc hamilton 24
p781
sVdate
p782
Vtomorrow
p783
sVstarttime
p784
V7pm
p785
sVtheater_chain
p786
Vamc hamilton 24
p787
sVmoviename
p788
Vdeadpool
p789
ssL185L
(dp790
g778
g779
sg780
g781
sg782
g783
sg784
V7:05
p791
sg786
g787
sg788
g789
ssL186L
(dp792
Vdate
p793
Vtomorrow
p794
sVcity
p795
Vseattle
p796
sVtheater
p797
Vamc lowes oak tree 6
p798
sVmoviename
p799
Vhail caesar
p800
sVstarttime
p801
V7:15 pm
p802
ssL187L
(dp803
Vcity
p804
Vbirmingham
p805
sVtheater
p806
Vcarmike summit 16
p807
sVvideo_format
p808
V3d
p809
sVstarttime
p810
Varound 4pm
p811
sVdate
p812
Vtoday
p813
sVmoviename
p814
Vzootopia
p815
ssL188L
(dp816
g804
g805
sg806
g807
sg808
Vstandard
p817
sg810
g811
sg812
g813
sg814
g815
ssL189L
(dp818
g804
g805
sg806
g807
sg808
g809
sg810
V4 PM
p819
sg812
g813
sg814
g815
ssL190L
(dp820
g804
g805
sg806
g807
sg808
g817
sg810
g819
sg812
g813
sg814
g815
ssL191L
(dp821
Vcity
p822
Vseattle
p823
sVtheater
p824
Vregal meridan 16
p825
sVnumberofkids
p826
Vno
p827
sVvideo_format
p828
Vregular
p829
sVstarttime
p830
Vnight
p831
sVdate
p832
Vtomorrow
p833
sVmoviename
p834
Vzootopia
p835
ssL192L
(dp836
g822
g823
sg824
Vbellevue lincoln square cinemas
p837
sg826
g827
sg828
g829
sg830
g831
sg832
g833
sg834
g835
ssL193L
(dp838
g822
g823
sg824
Vpacific science center imax theaters
p839
sg826
g827
sg828
g829
sg830
g831
sg832
g833
sg834
g835
ssL194L
(dp840
g822
g823
sg824
g825
sg826
g827
sg828
V3d
p841
sg830
g831
sg832
g833
sg834
g835
ssL195L
(dp842
g822
g823
sg824
g837
sg826
g827
sg828
g841
sg830
g831
sg832
g833
sg834
g835
ssL196L
(dp843
Vcity
p844
Vseattle
p845
sVtheater
p846
Velmwood palace 20
p847
sVdate
p848
Vtomorrow
p849
sVstarttime
p850
V5pm
p851
sVtheater_chain
p852
Vamc
p853
sVmoviename
p854
Vzootopia
p855
ssL197L
(dp856
g844
g845
sg846
g847
sg848
g849
sg850
V5:00 pm
p857
sg852
g853
sg854
g855
ssL198L
(dp858
g844
g845
sg846
g847
sg848
g849
sg850
g851
sg852
g853
sg854
g855
ssL199L
(dp859
g844
g845
sg846
g847
sg848
g849
sg850
g857
sg852
g853
sg854
g855
ssL200L
(dp860
Vdate
p861
Vtomorrow evening
p862
sVcity
p863
Vnashville
p864
sVtheater
p865
Vregal hollywood stadium 27
p866
sVmoviename
p867
Vrevenant
p868
sVstarttime
p869
Varound 8 pm
p870
ssL201L
(dp871
g861
g862
sg863
g864
sg865
g866
sg867
g868
sg869
V7:50pm
p872
ssL202L
(dp873
Vtheater_chain
p874
Vamc pacific place 11
p875
sVcity
p876
VSeattle
p877
sVdate
p878
Vtomorrow
p879
sVstarttime
p880
V7:00 pm
p881
ssL203L
(dp882
g874
g875
sg876
Vseattle
p883
sg878
g879
sg880
g881
ssL204L
(dp884
Vcity
p885
Vst louis
p886
sVtheater
p887
Vchase park plaza cinemas
p888
sVnumberofkids
p889
V2
sVstarttime
p890
Vafternoon
p891
sVdate
p892
Vthursday
p893
sVmoviename
p894
Vzootopia
p895
ssL205L
(dp896
g885
g886
sg887
g888
sg889
V2
sg890
V11:00am
p897
sg892
g893
sg894
g895
ssL206L
(dp898
g885
g886
sg887
g888
sg889
V2
sg890
V1:30pm
p899
sg892
g893
sg894
g895
ssL207L
(dp900
g885
g886
sg887
g888
sg889
V2
sg890
V4pm
p901
sg892
g893
sg894
g895
ssL208L
(dp902
g885
g886
sg887
g888
sg889
V2
sg890
V130pm
p903
sg892
g893
sg894
g895
ssL209L
(dp904
Vdate
p905
Vnext saturday
p906
sVcity
p907
Vwhittier village stadium cinemas
p908
sVmoviename
p909
Vlondon has fallen
p910
sVstarttime
p911
Vclosest to noon
p912
ssL210L
(dp913
g905
VMarch 12th
p914
sg907
g908
sg909
g910
sg911
g912
ssL211L
(dp915
g905
g906
sg907
g908
sg909
g910
sg911
V1:30pm
p916
ssL212L
(dp917
g905
g914
sg907
g908
sg909
g910
sg911
g916
ssL213L
(dp918
Vdate
p919
Vtomorrow
p920
sVcity
p921
Vseattle
p922
sVtheater
p923
Vregal meridian 16
p924
sVmoviename
p925
Vzoolander 2
p926
sVstarttime
p927
V9:25 pm
p928
ssL214L
(dp929
Vdate
p930
Vtonight
p931
sVcity
p932
Vseattle
p933
sVtheater
p934
Vregal lloyd center century eastport 16
p935
sVmoviename
p936
Vstar wars the force awakens
p937
sVstarttime
p938
Vlate showing
p939
ssL215L
(dp940
g930
g931
sg932
Vsoutheast portland
p941
sg934
g935
sg936
g937
sg938
g939
ssL216L
(dp942
g930
g931
sg932
Vportland
p943
sg934
g935
sg936
g937
sg938
g939
ssL217L
(dp944
g930
g931
sg932
g933
sg934
Vregal movies on tv stadium 16
p945
sg936
g937
sg938
g939
ssL218L
(dp946
g930
g931
sg932
g941
sg934
g945
sg936
g937
sg938
g939
ssL219L
(dp947
Vcity
p948
Vseattle
p949
sVtheater
p950
Vregal meridian 16
p951
sVvideo_format
p952
V2d
p953
sVstarttime
p954
V4:10&&7:00&&9:50pm
p955
sVdate
p956
Vtonight
p957
sVmoviename
p958
Vzootopia
p959
ssL220L
(dp960
g948
Vbellevue
p961
sg950
g951
sg952
g953
sg954
g955
sg956
g957
sg958
g959
ssL221L
(dp962
g948
g949
sg950
Vbellevue lincoln square cinemas
p963
sg952
g953
sg954
g955
sg956
g957
sg958
g959
ssL222L
(dp964
g948
g961
sg950
g963
sg952
g953
sg954
g955
sg956
g957
sg958
g959
ssL223L
(dp965
g948
g949
sg950
g951
sg952
g953
sg954
g955
sg956
g957
sg958
g959
ssL224L
(dp966
Vdate
p967
Vtonight
p968
sVcity
p969
Vseattle
p970
sVmoviename
p971
Vdeadpool
p972
sVtheater
p973
Vamc pacific place 11
p974
sVstarttime
p975
V10pm
p976
ssL225L
(dp977
g967
Vtomorrow
p978
sg969
g970
sg971
g972
sg973
g974
sg975
g976
ssL226L
(dp979
g967
g968
sg969
g970
sg971
g972
sg973
g974
sg975
V10:00 pm
p980
ssL227L
(dp981
g967
g978
sg969
g970
sg971
g972
sg973
g974
sg975
g980
ssL228L
(dp982
sL229L
(dp983
Vdate
p984
Vsaturday
p985
sVcity
p986
Vbirmingham
p987
sVtheater
p988
Vcarmike summit 16
p989
sVmoviename
p990
Vdeadpool
p991
sVstarttime
p992
V2pm
p993
ssL230L
(dp994
g984
g985
sg986
g987
sg988
g989
sg990
g991
sg992
V2:20 pm
p995
ssL231L
(dp996
Vdate
p997
Vlast weekend
p998
sVcity
p999
Vseattle
p1000
sVtheater
p1001
Vbellevue lincoln square cinemas
p1002
sVmoviename
p1003
Vzootopia
p1004
sVstarttime
p1005
V10:00am
p1006
ssL232L
(dp1007
g997
g998
sg999
Vbellevue
p1008
sg1001
g1002
sg1003
g1004
sg1005
g1006
ssL233L
(dp1009
g997
g998
sg999
g1000
sg1001
Vpacific science center imax theaters
p1010
sg1003
g1004
sg1005
g1006
ssL234L
(dp1011
g997
g998
sg999
g1008
sg1001
g1010
sg1003
g1004
sg1005
g1006
ssL235L
(dp1012
g997
g998
sg999
g1000
sg1001
g1002
sg1003
g1004
sg1005
g1006
ssL236L
(dp1013
Vdate
p1014
Vtonight
p1015
sVcity
p1016
Vmiami
p1017
sVtheater
p1018
VRegal South Beach
p1019
sVmoviename
p1020
Vwhiskey tango foxtrot
p1021
sVstarttime
p1022
Varound 9pm
p1023
ssL237L
(dp1024
g1014
g1015
sg1016
g1017
sg1018
VCinepolis USA
p1025
sg1020
g1021
sg1022
g1023
ssL238L
(dp1026
g1014
g1015
sg1016
g1017
sg1018
VCobb Dolphin Cinemas
p1027
sg1020
g1021
sg1022
g1023
ssL239L
(dp1028
g1014
g1015
sg1016
g1017
sg1018
Vcobb dolphin cinemas
p1029
sg1020
g1021
sg1022
g1023
ssL240L
(dp1030
g1014
g1015
sg1016
g1017
sg1018
g1019
sg1020
g1021
sg1022
V9pm
p1031
ssL241L
(dp1032
Vcity
p1033
Vseattle
p1034
sVtheater
p1035
Vamc southcenter 16
p1036
sVdate
p1037
Vthis weekend
p1038
sVstarttime
p1039
V9:30 pm
p1040
sVtheater_chain
p1041
Vamc
p1042
sVmoviename
p1043
Vlondon has fallen
p1044
ssL242L
(dp1045
g1033
g1034
sg1035
g1036
sg1037
g1038
sg1039
g1040
sg1041
Vregency
p1046
sg1043
g1044
ssL243L
(dp1047
g1033
g1034
sg1035
g1036
sg1037
Vthis week
p1048
sg1039
g1040
sg1041
g1042
sg1043
g1044
ssL244L
(dp1049
g1033
g1034
sg1035
g1036
sg1037
g1048
sg1039
g1040
sg1041
g1046
sg1043
g1044
ssL245L
(dp1050
g1033
g1034
sg1035
g1036
sg1037
Vwednesday
p1051
sg1039
g1040
sg1041
g1042
sg1043
g1044
ssL246L
(dp1052
Vcity
p1053
Vchicago
p1054
sVmoviename
p1055
Vthe other side of the door
p1056
ssL247L
(dp1057
g1053
g1054
sg1055
Vthe witch
p1058
ssL248L
(dp1059
Vdate
p1060
Vtoday
p1061
sVcity
p1062
Vnyc
p1063
sVtheater
p1064
Vua kaufman astoria stadium 14
p1065
sVmoviename
p1066
VTheWitch
p1067
sVstarttime
p1068
V7:00pm
p1069
ssL249L
(dp1070
g1060
g1061
sg1062
g1063
sg1064
g1065
sg1066
g1067
sg1068
V8:40pm
p1071
ssL250L
(dp1072
g1060
g1061
sg1062
g1063
sg1064
g1065
sg1066
VThe Other Side of The Door
p1073
sg1068
g1069
ssL251L
(dp1074
g1060
g1061
sg1062
g1063
sg1064
g1065
sg1066
g1073
sg1068
g1071
ssL252L
(dp1075
g1060
g1061
sg1062
g1063
sg1064
g1065
sg1066
Vthe other side of the door
p1076
sg1068
g1069
ssL253L
(dp1077
Vcity
p1078
Vsacramento
p1079
sVtheater
p1080
Vregal theater
p1081
sVvideo_format
p1082
Vstandard
p1083
sVstarttime
p1084
Varound 7 pm
p1085
sVdate
p1086
Vtomorrow
p1087
sVmoviename
p1088
Vgods of egypt
p1089
ssL254L
(dp1090
g1078
g1079
sg1080
Vthe Holiday 6
p1091
sg1082
g1083
sg1084
g1085
sg1086
g1087
sg1088
g1089
ssL255L
(dp1092
g1078
g1079
sg1080
V the Stadium 5
p1093
sg1082
g1083
sg1084
g1085
sg1086
g1087
sg1088
g1089
ssL256L
(dp1094
g1078
g1079
sg1080
Vthe Natomas Marketplace Stadium
p1095
sg1082
g1083
sg1084
g1085
sg1086
g1087
sg1088
g1089
ssL257L
(dp1096
g1078
g1079
sg1080
VNatomas Marketplace Stadium
p1097
sg1082
g1083
sg1084
g1085
sg1086
g1087
sg1088
g1089
ssL258L
(dp1098
Vcity
p1099
Vjohnstown
p1100
sVtheater
p1101
Vrichland cinemas
p1102
sVdate
p1103
Vnow
p1104
sVstarttime
p1105
Vlatest showing
p1106
sVtheater_chain
p1107
Vamc loews waterfront 22
p1108
sVmoviename
p1109
Vdeadpool
p1110
ssL259L
(dp1111
g1099
Vpittsburgh
p1112
sg1101
g1102
sg1103
g1104
sg1105
g1106
sg1107
g1108
sg1109
g1110
ssL260L
(dp1113
g1099
g1100
sg1101
Vthis theater
p1114
sg1103
g1104
sg1105
g1106
sg1107
g1108
sg1109
g1110
ssL261L
(dp1115
g1099
g1112
sg1101
g1114
sg1103
g1104
sg1105
g1106
sg1107
g1108
sg1109
g1110
ssL262L
(dp1116
g1099
g1100
sg1101
Vamc loews waterfront 22
p1117
sg1103
g1104
sg1105
g1106
sg1107
g1108
sg1109
g1110
ssL263L
(dp1118
Vdate
p1119
V03\u005c/15\u005c/2016
p1120
sVcity
p1121
Vatlanta
p1122
sVtheater
p1123
Vamc phipps plaza 14
p1124
sVmoviename
p1125
Vthe witch
p1126
sVstarttime
p1127
V8pm
p1128
ssL264L
(dp1129
g1119
g1120
sg1121
Vsouth barrington
p1130
sg1123
g1124
sg1125
g1126
sg1127
g1128
ssL265L
(dp1131
g1119
g1120
sg1121
g1122
sg1123
VAMC SOUTH BARRINGTON 30
p1132
sg1125
g1126
sg1127
g1128
ssL266L
(dp1133
g1119
g1120
sg1121
g1130
sg1123
g1132
sg1125
g1126
sg1127
g1128
ssL267L
(dp1134
g1119
g1120
sg1121
g1122
sg1123
g1124
sg1125
g1126
sg1127
g1128
ssL268L
(dp1135
Vdate
p1136
Vtomorrow
p1137
sVcity
p1138
Vlos angeles
p1139
sVtheater
p1140
Vregal la live stadium 14
p1141
sVmoviename
p1142
V10 cloverfield lane
p1143
sVstarttime
p1144
V11:45am
p1145
ssL269L
(dp1146
g1136
g1137
sg1138
g1139
sg1140
Vpacific theatres at the grove
p1147
sg1142
g1143
sg1144
g1145
ssL270L
(dp1148
g1136
g1137
sg1138
g1139
sg1140
Vregal la stadium 14
p1149
sg1142
g1143
sg1144
g1145
ssL271L
(dp1150
g1136
g1137
sg1138
g1139
sg1140
Vregal la
p1151
sg1142
g1143
sg1144
g1145
ssL272L
(dp1152
g1136
g1137
sg1138
g1139
sg1140
g1141
sg1142
g1143
sg1144
g1145
ssL273L
(dp1153
Vcity
p1154
Vseattle
p1155
sVtheater
p1156
Vregal meridian 16
p1157
sVvideo_format
p1158
V3d
p1159
sVstarttime
p1160
Varound 8 pm
p1161
sVdate
p1162
Vtomorrow
p1163
sVmoviename
p1164
Vzootopia
p1165
ssL274L
(dp1166
g1154
g1155
sg1156
Vbellevue lincoln square cinemas
p1167
sg1158
g1159
sg1160
g1161
sg1162
g1163
sg1164
g1165
ssL275L
(dp1168
g1154
g1155
sg1156
Vvarsity theater
p1169
sg1158
g1159
sg1160
g1161
sg1162
g1163
sg1164
g1165
ssL276L
(dp1170
g1154
g1155
sg1156
g1157
sg1158
Vregular
p1171
sg1160
g1161
sg1162
g1163
sg1164
g1165
ssL277L
(dp1172
g1154
g1155
sg1156
g1167
sg1158
g1171
sg1160
g1161
sg1162
g1163
sg1164
g1165
ssL278L
(dp1173
Vcity
p1174
Vseattle
p1175
sVtheater
p1176
Vtheaters all over
p1177
sVvideo_format
p1178
V2d
p1179
sVstarttime
p1180
Varound 6 pm
p1181
sVdate
p1182
Vthis evening
p1183
sVmoviename
p1184
Vzootopia
p1185
ssL279L
(dp1186
g1174
Vover seattle
p1187
sg1176
g1177
sg1178
g1179
sg1180
g1181
sg1182
g1183
sg1184
g1185
ssL280L
(dp1188
g1174
Vbellevue
p1189
sg1176
g1177
sg1178
g1179
sg1180
g1181
sg1182
g1183
sg1184
g1185
ssL281L
(dp1190
g1174
g1175
sg1176
Vregal meridian 16
p1191
sg1178
g1179
sg1180
g1181
sg1182
g1183
sg1184
g1185
ssL282L
(dp1192
g1174
g1187
sg1176
g1191
sg1178
g1179
sg1180
g1181
sg1182
g1183
sg1184
g1185
ssL283L
(dp1193
Vdate
p1194
Vtonight
p1195
sVcity
p1196
Vdallas
p1197
sVtheater
p1198
Valamo draft house
p1199
sVmoviename
p1200
Vdeadpool
p1201
sVstarttime
p1202
V5pm
p1203
ssL284L
(dp1204
g1194
g1195
sg1196
g1197
sg1198
Valamo drafthouse
p1205
sg1200
g1201
sg1202
g1203
ssL285L
(dp1206
g1194
g1195
sg1196
g1197
sg1198
g1199
sg1200
g1201
sg1202
V7:55pm
p1207
ssL286L
(dp1208
g1194
g1195
sg1196
g1197
sg1198
g1205
sg1200
g1201
sg1202
g1207
ssL287L
(dp1209
g1194
g1195
sg1196
g1197
sg1198
g1199
sg1200
g1201
sg1202
V10:15pm
p1210
ssL288L
(dp1211
Vdate
p1212
Vtonight
p1213
sVcity
p1214
Vst louis park
p1215
sVmoviename
p1216
Vdeadpool
p1217
ssL289L
(dp1218
g1212
g1213
sg1214
g1215
sg1216
g1217
ssL290L
(dp1219
Vdate
p1220
Vtomorrow
p1221
sVcity
p1222
Vseattle
p1223
sVtheater
p1224
Vregal meridian 16
p1225
sVmoviename
p1226
Vzoolander 2
p1227
sVstarttime
p1228
V9:25 pm
p1229
ssL291L
(dp1230
Vdate
p1231
Vtomorrow
p1232
sVtheater
p1233
Vregency commerce 14
p1234
sVmoviename
p1235
Vrisen
p1236
sVstarttime
p1237
V11:50am
p1238
ssL292L
(dp1239
g1231
g1232
sg1233
g1234
sg1235
g1236
sg1237
V2:30pm
p1240
ssL293L
(dp1241
g1231
g1232
sg1233
g1234
sg1235
g1236
sg1237
V7:50
p1242
ssL294L
(dp1243
g1231
g1232
sg1233
g1234
sg1235
g1236
sg1237
V10:25
p1244
ssL295L
(dp1245
g1231
g1232
sg1233
g1234
sg1235
g1236
sg1237
V2:30
p1246
ssL296L
(dp1247
sL297L
(dp1248
sL298L
(dp1249
sL299L
(dp1250
Vdate
p1251
Vthis friday
p1252
sVcity
p1253
Vportland
p1254
sVtheater
p1255
VLiving Room Theaters Regal Lloyd Center 10
p1256
sVmoviename
p1257
Vstar wars
p1258
sVstarttime
p1259
V12:05pm
p1260
ssL300L
(dp1261
g1251
g1252
sg1253
g1254
sg1255
Vcentury Eastport 16
p1262
sg1257
g1258
sg1259
g1260
ssL301L
(dp1263
g1251
g1252
sg1253
g1254
sg1255
Vregal lloyd center 10
p1264
sg1257
g1258
sg1259
g1260
ssL302L
(dp1265
g1251
g1252
sg1253
g1254
sg1255
g1256
sg1257
g1258
sg1259
V6:25pm
p1266
ssL303L
(dp1267
g1251
g1252
sg1253
g1254
sg1255
g1262
sg1257
g1258
sg1259
g1266
ssL304L
(dp1268
Vcity
p1269
Vportland
p1270
sVtheater
p1271
Vregal pioneer place
p1272
sVvideo_format
p1273
V3d
p1274
sVstarttime
p1275
Vafter 5 pm
p1276
sVdate
p1277
Vfriday
p1278
sVmoviename
p1279
Vzootopia
p1280
ssL305L
(dp1281
g1269
g1270
sg1271
Vregal lloyd center 10
p1282
sg1273
g1274
sg1275
g1276
sg1277
g1278
sg1279
g1280
ssL306L
(dp1283
g1269
g1270
sg1271
g1272
sg1273
V standard
p1284
sg1275
g1276
sg1277
g1278
sg1279
g1280
ssL307L
(dp1285
g1269
g1270
sg1271
g1282
sg1273
g1284
sg1275
g1276
sg1277
g1278
sg1279
g1280
ssL308L
(dp1286
g1269
g1270
sg1271
g1272
sg1273
Vstandard
p1287
sg1275
g1276
sg1277
g1278
sg1279
g1280
ssL309L
(dp1288
Vdate
p1289
Vtomorrow
p1290
sVcity
p1291
Vseattle
p1292
sVtheater
p1293
Vregal meridian 16
p1294
sVmoviename
p1295
Vzootopia
p1296
sVstarttime
p1297
Vnight around 8pm
p1298
ssL310L
(dp1299
g1289
g1290
sg1291
Vbellevue
p1300
sg1293
g1294
sg1295
g1296
sg1297
g1298
ssL311L
(dp1301
g1289
g1290
sg1291
g1292
sg1293
Vbellevue lincoln square cinemas
p1302
sg1295
g1296
sg1297
g1298
ssL312L
(dp1303
g1289
g1290
sg1291
g1300
sg1293
g1302
sg1295
g1296
sg1297
g1298
ssL313L
(dp1304
g1289
g1290
sg1291
g1292
sg1293
g1294
sg1295
g1296
sg1297
g1298
ssL314L
(dp1305
Vdate
p1306
Vtonight
p1307
sVcity
p1308
Vseattle
p1309
sVtheater
p1310
Vregal meridian 16
p1311
sVmoviename
p1312
Vzootopia
p1313
sVstarttime
p1314
V8:40pm
p1315
ssL315L
(dp1316
g1306
g1307
sg1308
g1309
sg1310
g1311
sg1312
g1313
sg1314
g1315
ssL316L
(dp1317
g1306
g1307
sg1308
g1309
sg1310
g1311
sg1312
g1313
sg1314
V8:40
p1318
ssL317L
(dp1319
g1306
g1307
sg1308
g1309
sg1310
g1311
sg1312
g1313
sg1314
g1318
ssL318L
(dp1320
g1306
g1307
sg1308
g1309
sg1310
g1311
sg1312
VZootopia
p1321
sg1314
g1315
ssL319L
(dp1322
Vcity
p1323
Vportland
p1324
sVtheater
p1325
Vregal lloyd center 10 & IMAX
p1326
sVprice
p1327
V$20
p1328
sVstarttime
p1329
V12:05pm
p1330
sVdate
p1331
Vfriday
p1332
sVmoviename
p1333
Vstar wars
p1334
ssL320L
(dp1335
g1323
VPortland
p1336
sg1325
g1326
sg1327
g1328
sg1329
g1330
sg1331
g1332
sg1333
g1334
ssL321L
(dp1337
g1323
g1324
sg1325
VCENTURY 16 EASTPORT PLAZA
p1338
sg1327
g1328
sg1329
g1330
sg1331
g1332
sg1333
g1334
ssL322L
(dp1339
g1323
g1336
sg1325
g1338
sg1327
g1328
sg1329
g1330
sg1331
g1332
sg1333
g1334
ssL323L
(dp1340
g1323
g1324
sg1325
Vcentury 16 EASTPORT PLAZA
p1341
sg1327
g1328
sg1329
g1330
sg1331
g1332
sg1333
g1334
ssL324L
(dp1342
Vdate
p1343
Vtomorrow
p1344
sVcity
p1345
Vseattle
p1346
sVtheater
p1347
Vregal meridian 16
p1348
sVmoviename
p1349
Vzootopia
p1350
sVstarttime
p1351
V9:10 pm
p1352
ssL325L
(dp1353
Vdate
p1354
Vtonight
p1355
sVcity
p1356
Vseattle
p1357
sVtheater
p1358
Vregal meridian 16
p1359
sVmoviename
p1360
Vzootopia
p1361
sVstarttime
p1362
V8:40pm tonight
p1363
ssL326L
(dp1364
g1354
g1355
sg1356
g1357
sg1358
g1359
sg1360
g1361
sg1362
g1363
ssL327L
(dp1365
g1354
g1355
sg1356
g1357
sg1358
g1359
sg1360
g1361
sg1362
V8:40
p1366
ssL328L
(dp1367
g1354
g1355
sg1356
g1357
sg1358
g1359
sg1360
g1361
sg1362
g1366
ssL329L
(dp1368
Vdate
p1369
Vtomorrow
p1370
sVcity
p1371
Vseattle
p1372
sVtheater
p1373
Vregal meridian 16
p1374
sVmoviename
p1375
Vhail caesar
p1376
sVstarttime
p1377
V8:45 pm
p1378
ssL330L
(dp1379
Vdate
p1380
Vtonight
p1381
sVcity
p1382
VMonroe
p1383
sVtheater
p1384
Vregal barkley village stadium 16
p1385
sVmoviename
p1386
Vkung fu panda 3
p1387
sVstarttime
p1388
Varound 8pm
p1389
ssL331L
(dp1390
g1380
g1381
sg1382
g1383
sg1384
Vamc loews cascade mall
p1391
sg1386
g1387
sg1388
g1389
ssL332L
(dp1392
g1380
g1381
sg1382
g1383
sg1384
Vregal marysville 14
p1393
sg1386
g1387
sg1388
g1389
ssL333L
(dp1394
g1380
g1381
sg1382
g1383
sg1384
g1385
sg1386
g1387
sg1388
V9:10
p1395
ssL334L
(dp1396
g1380
g1381
sg1382
g1383
sg1384
g1391
sg1386
g1387
sg1388
g1395
ssL335L
(dp1397
Vcity
p1398
Vcary
p1399
sVtheater
p1400
Vpark west 14
p1401
sVvideo_format
p1402
V3d
p1403
sVstarttime
p1404
Varound 6pm
p1405
sVdate
p1406
Vsaturday
p1407
sVmoviename
p1408
Vzootopia
p1409
ssL336L
(dp1410
g1398
g1399
sg1400
Vfangandgo
p1411
sg1402
g1403
sg1404
g1405
sg1406
g1407
sg1408
g1409
ssL337L
(dp1412
g1398
g1399
sg1400
VFrank Theatres Parkside Town Commons Stadium 11
p1413
sg1402
g1403
sg1404
g1405
sg1406
g1407
sg1408
g1409
ssL338L
(dp1414
g1398
g1399
sg1400
VFrank Theatres
p1415
sg1402
g1403
sg1404
g1405
sg1406
g1407
sg1408
g1409
ssL339L
(dp1416
g1398
g1399
sg1400
g1401
sg1402
g1403
sg1404
g1405
sg1406
g1407
sg1408
g1409
ssL340L
(dp1417
Vdate
p1418
Vtomorrow
p1419
sVcity
p1420
Vseattle
p1421
sVtheater
p1422
Vregal meridian 16
p1423
sVmoviename
p1424
Vhail caesar
p1425
sVstarttime
p1426
V8:45 pm
p1427
ssL341L
(dp1428
Vdate
p1429
Vtoday
p1430
sVcity
p1431
Vbirmingham
p1432
sVtheater
p1433
Vcarmike summit 16
p1434
sVmoviename
p1435
Vdeadpool
p1436
sVstarttime
p1437
Varound 2pm
p1438
ssL342L
(dp1439
g1429
g1430
sg1431
g1432
sg1433
Vcarmike summit
p1440
sg1435
g1436
sg1437
g1438
ssL343L
(dp1441
g1429
g1430
sg1431
g1432
sg1433
g1434
sg1435
g1436
sg1437
V2:20PM
p1442
ssL344L
(dp1443
g1429
g1430
sg1431
g1432
sg1433
g1440
sg1435
g1436
sg1437
g1442
ssL345L
(dp1444
g1429
g1430
sg1431
g1432
sg1433
g1434
sg1435
g1436
sg1437
V2:20
p1445
ssL346L
(dp1446
Vdate
p1447
Vnext sunday
p1448
sVcity
p1449
Vwhittier
p1450
sVtheater
p1451
Vwhittier village stadium cinemas
p1452
sVmoviename
p1453
Vlondon has fallen
p1454
sVstarttime
p1455
Vbetween noon and 4pm
p1456
ssL347L
(dp1457
g1447
g1448
sg1449
g1450
sg1451
g1452
sg1453
g1454
sg1455
V1:30pm
p1458
ssL348L
(dp1459
g1447
V3/13
p1460
sg1449
g1450
sg1451
g1452
sg1453
g1454
sg1455
g1456
ssL349L
(dp1461
g1447
g1460
sg1449
g1450
sg1451
g1452
sg1453
g1454
sg1455
g1458
ssL350L
(dp1462
Vdate
p1463
Vtomorrow
p1464
sVmoviename
p1465
Vthe witch
p1466
sVtheater
p1467
Vcinemar downey
p1468
sVstarttime
p1469
Vearly
p1470
ssL351L
(dp1471
g1463
g1464
sg1465
g1466
sg1467
Vamc theaters puente hills
p1472
sg1469
g1470
ssL352L
(dp1473
g1463
g1464
sg1465
g1466
sg1467
g1468
sg1469
V10:35
p1474
ssL353L
(dp1475
g1463
g1464
sg1465
g1466
sg1467
g1472
sg1469
g1474
ssL354L
(dp1476
g1463
g1464
sg1465
g1466
sg1467
g1468
sg1469
V11:40 am
p1477
ssL355L
(dp1478
Vdate
p1479
Vtomorrow
p1480
sVcity
p1481
Vsparta
p1482
sVtheater
p1483
Vwehrenberg o'fallon 15 cine
p1484
sVmoviename
p1485
Vzoolander 2
p1486
sVstarttime
p1487
Vafternoon
p1488
ssL356L
(dp1489
g1479
g1480
sg1481
VShiloh
p1490
sg1483
g1484
sg1485
g1486
sg1487
g1488
ssL357L
(dp1491
g1479
g1480
sg1481
VBelleville
p1492
sg1483
g1484
sg1485
g1486
sg1487
g1488
ssL358L
(dp1493
g1479
g1480
sg1481
Vo'fallon
p1494
sg1483
g1484
sg1485
g1486
sg1487
g1488
ssL359L
(dp1495
g1479
g1480
sg1481
Vfairview heights
p1496
sg1483
g1484
sg1485
g1486
sg1487
g1488
ssL360L
(dp1497
Vdate
p1498
Vtomorrow
p1499
sVcity
p1500
Vseattle
p1501
sVtheater
p1502
Vregal meridian 16
p1503
sVmoviename
p1504
Vzootopia
p1505
sVstarttime
p1506
V9:10 pm
p1507
ssL361L
(dp1508
Vdate
p1509
Vtomorrow night
p1510
sVcity
p1511
Vseattle
p1512
sVmoviename
p1513
Vzootopia
p1514
ssL362L
(dp1515
Vcity
p1516
Vseattle
p1517
sVtheater
p1518
Vamc pacific place 11
p1519
sVdate
p1520
Vtonight
p1521
sVstarttime
p1522
V6:10pm
p1523
sVtheater_chain
p1524
Vamc
p1525
sVmoviename
p1526
Vdeadpool
p1527
ssL363L
(dp1528
g1516
Vbellevue
p1529
sg1518
g1519
sg1520
g1521
sg1522
g1523
sg1524
g1525
sg1526
g1527
ssL364L
(dp1530
g1516
g1517
sg1518
Vbellevue lincoln square cinemas
p1531
sg1520
g1521
sg1522
g1523
sg1524
g1525
sg1526
g1527
ssL365L
(dp1532
g1516
g1529
sg1518
g1531
sg1520
g1521
sg1522
g1523
sg1524
g1525
sg1526
g1527
ssL366L
(dp1533
g1516
g1517
sg1518
Vpacific place 11
p1534
sg1520
g1521
sg1522
g1523
sg1524
g1525
sg1526
g1527
ssL367L
(dp1535
Vmoviename
p1536
Vfirst
p1537
ssL368L
(dp1538
Vcity
p1539
Vbirmingham
p1540
sVtheater
p1541
Vcarmike summit 16
p1542
sVvideo_format
p1543
V3d
p1544
sVstarttime
p1545
V2 pm
p1546
sVdate
p1547
Vsaturday
p1548
sVmoviename
p1549
Vzootopia
p1550
ssL369L
(dp1551
g1539
g1540
sg1541
g1542
sg1543
Vstandard
p1552
sg1545
g1546
sg1547
g1548
sg1549
g1550
ssL370L
(dp1553
g1539
g1540
sg1541
g1542
sg1543
g1544
sg1545
g1546
sg1547
g1548
sg1549
g1550
ssL371L
(dp1554
g1539
g1540
sg1541
g1542
sg1543
g1552
sg1545
g1546
sg1547
g1548
sg1549
g1550
ssL372L
(dp1555
g1539
g1540
sg1541
g1542
sg1543
g1544
sg1545
V1:45pm
p1556
sg1547
g1548
sg1549
g1550
ssL373L
(dp1557
Vdate
p1558
Vsaturday
p1559
sVcity
p1560
Vseattle
p1561
sVtheater
p1562
Vbellevue lincoln square cinemas
p1563
sVmoviename
p1564
Vzootopia
p1565
sVstarttime
p1566
Varound 2pm
p1567
ssL374L
(dp1568
g1558
g1559
sg1560
g1561
sg1562
Vbellevue lincoln square
p1569
sg1564
g1565
sg1566
g1567
ssL375L
(dp1570
g1558
g1559
sg1560
g1561
sg1562
g1563
sg1564
g1565
sg1566
V2:35 pm
p1571
ssL376L
(dp1572
g1558
g1559
sg1560
g1561
sg1562
g1569
sg1564
g1565
sg1566
g1571
ssL377L
(dp1573
g1558
g1559
sg1560
g1561
sg1562
g1563
sg1564
g1565
sg1566
V2:35
p1574
ssL378L
(dp1575
Vcity
p1576
Vseattle
p1577
sVtheater
p1578
Vregal meridian 16
p1579
sVvideo_format
p1580
V2d
p1581
sVstarttime
p1582
V4:10
p1583
sVdate
p1584
Vtonight
p1585
sVmoviename
p1586
Vzootopia
p1587
ssL379L
(dp1588
g1576
Vbellevue
p1589
sg1578
g1579
sg1580
g1581
sg1582
g1583
sg1584
g1585
sg1586
g1587
ssL380L
(dp1590
g1576
g1577
sg1578
Vbellevue lincoln square cinemas
p1591
sg1580
g1581
sg1582
g1583
sg1584
g1585
sg1586
g1587
ssL381L
(dp1592
g1576
g1589
sg1578
g1591
sg1580
g1581
sg1582
g1583
sg1584
g1585
sg1586
g1587
ssL382L
(dp1593
g1576
g1577
sg1578
g1579
sg1580
V3d
p1594
sg1582
g1583
sg1584
g1585
sg1586
g1587
ssL383L
(dp1595
Vcity
p1596
Valbany
p1597
sVmoviename
p1598
Vwhiskey tango foxtrot
p1599
sVtheater
p1600
Vany
p1601
sVstarttime
p1602
Vsoonest
p1603
ssL384L
(dp1604
g1596
g1597
sg1598
g1599
sg1600
Vregal clifton park stadium
p1605
sg1602
g1603
ssL385L
(dp1606
g1596
g1597
sg1598
g1599
sg1600
g1601
sg1602
V12:40pm
p1607
ssL386L
(dp1608
g1596
g1597
sg1598
g1599
sg1600
g1605
sg1602
g1607
ssL387L
(dp1609
Vdate
p1610
Vfriday
p1611
sVcity
p1612
Vportland
p1613
sVtheater
p1614
Vcentury eastport 16
p1615
sVmoviename
p1616
Vstar wars
p1617
sVstarttime
p1618
V12:20pm
p1619
ssL388L
(dp1620
g1610
g1611
sg1612
g1613
sg1614
g1615
sg1616
g1617
sg1618
V3:40
p1621
ssL389L
(dp1622
g1610
g1611
sg1612
g1613
sg1614
g1615
sg1616
g1617
sg1618
V6:50
p1623
ssL390L
(dp1624
g1610
g1611
sg1612
g1613
sg1614
g1615
sg1616
g1617
sg1618
V10:00
p1625
ssL391L
(dp1626
g1610
g1611
sg1612
g1613
sg1614
g1615
sg1616
g1617
sg1618
V10 o clock
p1627
ssL392L
(dp1628
Vmoviename
p1629
Vdeadpool
p1630
sVactor
p1631
Vryan reynolds
p1632
ssL393L
(dp1633
g1629
Vlondon has fallen
p1634
sg1631
g1632
ssL394L
(dp1635
g1629
Vthe revenant
p1636
sg1631
g1632
ssL395L
(dp1637
Vdate
p1638
Vthis week
p1639
sVcity
p1640
Vhouma
p1641
sVtheater
p1642
Vamc houma palace 10
p1643
sVmoviename
p1644
V
sVstarttime
p1645
Vnight
p1646
ssL396L
(dp1647
g1638
g1639
sg1640
Vla
p1648
sg1642
g1643
sg1644
V
sg1645
g1646
ssL397L
(dp1649
g1638
g1639
sg1640
g1641
sg1642
g1643
sg1644
V
sg1645
g1646
ssL398L
(dp1650
g1638
g1639
sg1640
g1648
sg1642
g1643
sg1644
V
sg1645
g1646
ssL399L
(dp1651
g1638
g1639
sg1640
g1641
sg1642
g1643
sg1644
V
sg1645
V2:15pm
p1652
ssL400L
(dp1653
Vdate
p1654
Vtomorrow
p1655
sVcity
p1656
Vla
p1657
sVtheater
p1658
Vregal la stadium 14
p1659
sVmoviename
p1660
Vlondon has fallen
p1661
sVstarttime
p1662
Vnight
p1663
ssL401L
(dp1664
g1654
g1655
sg1656
Vlos angeles
p1665
sg1658
g1659
sg1660
g1661
sg1662
g1663
ssL402L
(dp1666
g1654
g1655
sg1656
g1657
sg1658
Volympic blvd
p1667
sg1660
g1661
sg1662
g1663
ssL403L
(dp1668
g1654
g1655
sg1656
g1665
sg1658
g1667
sg1660
g1661
sg1662
g1663
ssL404L
(dp1669
g1654
g1655
sg1656
g1657
sg1658
g1659
sg1660
g1661
sg1662
V10 cloverfield lane
p1670
ssL405L
(dp1671
Vtheater_chain
p1672
Vcentury
p1673
sVcity
p1674
Vevanston
p1675
sVprice
p1676
V$10
p1677
ssL406L
(dp1678
Vcity
p1679
VSeattle
p1680
sVtheater
p1681
VRegal Meridan 16 Bellevue Lincoln Square Cinemas
p1682
sVvideo_format
p1683
Vregular
p1684
sVstarttime
p1685
Vroughly every hour
p1686
sVdate
p1687
Vtomorrow night
p1688
sVmoviename
p1689
Vzootopia
p1690
ssL407L
(dp1691
g1679
g1680
sg1681
VPacific Science Center IMAX Theaters
p1692
sg1683
g1684
sg1685
g1686
sg1687
g1688
sg1689
g1690
ssL408L
(dp1693
g1679
g1680
sg1681
Vregal meridan 16
p1694
sg1683
g1684
sg1685
g1686
sg1687
g1688
sg1689
g1690
ssL409L
(dp1695
g1679
g1680
sg1681
g1682
sg1683
V3d
p1696
sg1685
g1686
sg1687
g1688
sg1689
g1690
ssL410L
(dp1697
g1679
g1680
sg1681
g1692
sg1683
g1696
sg1685
g1686
sg1687
g1688
sg1689
g1690
ssL411L
(dp1698
Vdate
p1699
Vtoday
p1700
ssL412L
(dp1701
Vcity
p1702
Vroyal oak
p1703
sVtheater
p1704
Vany
p1705
sVdate
p1706
Vtonight
p1707
sVstarttime
p1708
V7:00
p1709
sVtheater_chain
p1710
Vamc star john r 15
p1711
sVmoviename
p1712
V10 cloverfield lane
p1713
ssL413L
(dp1714
g1702
Vmadison heights
p1715
sg1704
g1705
sg1706
g1707
sg1708
g1709
sg1710
g1711
sg1712
g1713
ssL414L
(dp1716
g1702
VSouthfield
p1717
sg1704
g1705
sg1706
g1707
sg1708
g1709
sg1710
g1711
sg1712
g1713
ssL415L
(dp1718
g1702
g1703
sg1704
Vbox office window
p1719
sg1706
g1707
sg1708
g1709
sg1710
g1711
sg1712
g1713
ssL416L
(dp1720
g1702
g1715
sg1704
g1719
sg1706
g1707
sg1708
g1709
sg1710
g1711
sg1712
g1713
ssL417L
(dp1721
Vdate
p1722
Vthis week
p1723
sVcity
p1724
Vcarbondale
p1725
sVtheater
p1726
Vamc showplace carbondale
p1727
sVmoviename
p1728
Vlondon has fallen
p1729
sVstarttime
p1730
Vafternoon
p1731
ssL418L
(dp1732
g1722
g1723
sg1724
g1725
sg1726
VMain Street Carbondale
p1733
sg1728
g1729
sg1730
g1731
ssL419L
(dp1734
g1722
g1723
sg1724
g1725
sg1726
VAMC UNIVERSITY PLACE 8
p1735
sg1728
g1729
sg1730
g1731
ssL420L
(dp1736
g1722
Vtomorrow
p1737
sg1724
g1725
sg1726
g1727
sg1728
g1729
sg1730
g1731
ssL421L
(dp1738
g1722
g1737
sg1724
g1725
sg1726
g1733
sg1728
g1729
sg1730
g1731
ssL422L
(dp1739
Vdate
p1740
Vtonight
p1741
sVcity
p1742
Vmonroe
p1743
sVtheater
p1744
Vregal barkley village stadium 16
p1745
sVmoviename
p1746
Vkung fu panda 3
p1747
sVstarttime
p1748
Varound 8pm
p1749
ssL423L
(dp1750
g1740
g1741
sg1742
g1743
sg1744
Vamc loews cascade mall
p1751
sg1746
g1747
sg1748
g1749
ssL424L
(dp1752
g1740
g1741
sg1742
g1743
sg1744
Vregal marysville 14
p1753
sg1746
g1747
sg1748
g1749
ssL425L
(dp1754
g1740
g1741
sg1742
g1743
sg1744
g1745
sg1746
g1747
sg1748
V9:10
p1755
ssL426L
(dp1756
g1740
g1741
sg1742
g1743
sg1744
g1751
sg1746
g1747
sg1748
g1755
ssL427L
(dp1757
Vmoviename
p1758
Vlondon has fallen
p1759
ssL428L
(dp1760
Vdate
p1761
Vfriday
p1762
sVcity
p1763
Vseattle
p1764
sVtheater
p1765
Vamc pacific place 11 600 pine s
p1766
sVmoviename
p1767
V10 cloverfield lane
p1768
sVstarttime
p1769
Vafter dinner
p1770
ssL429L
(dp1771
g1761
g1762
sg1763
Vbellevue
p1772
sg1765
g1766
sg1767
g1768
sg1769
g1770
ssL430L
(dp1773
g1761
g1762
sg1763
g1764
sg1765
Vbellevue lincoln square cinemas
p1774
sg1767
g1768
sg1769
g1770
ssL431L
(dp1775
g1761
g1762
sg1763
g1772
sg1765
g1774
sg1767
g1768
sg1769
g1770
ssL432L
(dp1776
g1761
g1762
sg1763
g1764
sg1765
g1766
sg1767
g1768
sg1769
g1770
ssL433L
(dp1777
Vdate
p1778
Vfriday
p1779
sVcity
p1780
Vbirmingham
p1781
sVtheater
p1782
Vcarmike summit 16
p1783
sVmoviename
p1784
Vdeadpool
p1785
sVstarttime
p1786
Vmatinee
p1787
ssL434L
(dp1788
g1778
g1779
sg1780
g1781
sg1782
g1783
sg1784
g1785
sg1786
g1787
ssL435L
(dp1789
g1778
Vsaturday
p1790
sg1780
g1781
sg1782
g1783
sg1784
g1785
sg1786
g1787
ssL436L
(dp1791
g1778
g1790
sg1780
g1781
sg1782
g1783
sg1784
g1785
sg1786
g1787
ssL437L
(dp1792
g1778
g1779
sg1780
g1781
sg1782
g1783
sg1784
g1785
sg1786
Vevening
p1793
ssL438L
(dp1794
Vcity
p1795
Vseattle
p1796
sVmoviename
p1797
Veddie the eagle
p1798
sVtheater
p1799
Vregal meridian sundance cinemas
p1800
ssL439L
(dp1801
g1795
g1796
sg1797
Vbig short
p1802
sg1799
g1800
ssL440L
(dp1803
g1795
g1796
sg1797
Vthe big short
p1804
sg1799
g1800
ssL441L
(dp1805
g1795
g1796
sg1797
g1798
sg1799
Vregal thornton place
p1806
ssL442L
(dp1807
g1795
g1796
sg1797
g1802
sg1799
g1806
ssL443L
(dp1808
Vcity
p1809
VLong Island
p1810
sVmoviename
p1811
VDeadpool
p1812
sVtheater
p1813
Vloews stony brook 17
p1814
sVstarttime
p1815
Vtonight
p1816
ssL444L
(dp1817
g1809
g1810
sg1811
g1812
sg1813
Vamc loews stony brook
p1818
sg1815
g1816
ssL445L
(dp1819
g1809
g1810
sg1811
g1812
sg1813
g1814
sg1815
V7:30 pm
p1820
ssL446L
(dp1821
g1809
g1810
sg1811
g1812
sg1813
g1818
sg1815
g1820
ssL447L
(dp1822
g1809
g1810
sg1811
g1812
sg1813
g1814
sg1815
V8:15 pm
p1823
ssL448L
(dp1824
Vdate
p1825
Vsaturday
p1826
sVcity
p1827
Vportland
p1828
sVtheater
p1829
Vregal fox tower stadium 10
p1830
sVmoviename
p1831
Vwhiskey tango foxtrot
p1832
sVstarttime
p1833
Vafter 6 pm
p1834
ssL449L
(dp1835
g1825
g1826
sg1827
g1828
sg1829
g1830
sg1831
g1832
sg1833
V6:45
p1836
ssL450L
(dp1837
Vmoviename
p1838
Vdeadpool
p1839
ssL451L
(dp1840
g1838
g1839
ssL452L
(dp1841
Vdate
p1842
Vtomorrow
p1843
sVcity
p1844
Vdes moines
p1845
sVtheater
p1846
Vany
p1847
sVmoviename
p1848
Vzootopia
p1849
sVstarttime
p1850
V around 7pm
p1851
ssL453L
(dp1852
g1842
g1843
sg1844
g1845
sg1846
Vflix brewhouse des moines
p1853
sg1848
g1849
sg1850
g1851
ssL454L
(dp1854
g1842
g1843
sg1844
g1845
sg1846
Vcarmike cobblestone 9
p1855
sg1848
g1849
sg1850
g1851
ssL455L
(dp1856
g1842
g1843
sg1844
g1845
sg1846
g1847
sg1848
Vkung fu panda 3
p1857
sg1850
g1851
ssL456L
(dp1858
g1842
g1843
sg1844
g1845
sg1846
g1853
sg1848
g1857
sg1850
g1851
ssL457L
(dp1859
Vcity
p1860
Vnorthern san francisco
p1861
sVtheater
p1862
Vamc van ness 14
p1863
sVvideo_format
p1864
Vstandard
p1865
sVstarttime
p1866
Vafternoon
p1867
sVdate
p1868
Vtomorrow
p1869
sVmoviename
p1870
Vzootopia
p1871
ssL458L
(dp1872
g1860
V94109
p1873
sg1862
g1863
sg1864
g1865
sg1866
g1867
sg1868
g1869
sg1870
g1871
ssL459L
(dp1874
g1860
g1861
sg1862
VAMC Van Ness
p1875
sg1864
g1865
sg1866
g1867
sg1868
g1869
sg1870
g1871
ssL460L
(dp1876
g1860
g1873
sg1862
g1875
sg1864
g1865
sg1866
g1867
sg1868
g1869
sg1870
g1871
ssL461L
(dp1877
g1860
g1861
sg1862
Vamc van ness
p1878
sg1864
g1865
sg1866
g1867
sg1868
g1869
sg1870
g1871
ssL462L
(dp1879
Vdate
p1880
Vtomorrow
p1881
sVcity
p1882
Vseattle
p1883
sVtheater
p1884
Vamc lowes oak tree 6
p1885
sVmoviename
p1886
Vrisen
p1887
sVstarttime
p1888
V4:25 pm
p1889
ssL463L
(dp1890
Vdate
p1891
Vmarch 11th
p1892
sVcity
p1893
Vseattle
p1894
sVmoviename
p1895
Vwhiskey tango foxtrot
p1896
sVtheater
p1897
VSIFF Cinema Uptown
p1898
sVstarttime
p1899
V7
ssL464L
(dp1900
g1891
Vtomorrow
p1901
sg1893
g1894
sg1895
g1896
sg1897
g1898
sg1899
V7
ssL465L
(dp1902
g1891
g1892
sg1893
g1894
sg1895
g1896
sg1897
VArk Lodge Cinemas
p1903
sg1899
V7
ssL466L
(dp1904
g1891
g1901
sg1893
g1894
sg1895
g1896
sg1897
g1903
sg1899
V7
ssL467L
(dp1905
g1891
g1892
sg1893
g1894
sg1895
g1896
sg1897
VRegal Crossroads
p1906
sg1899
V7
ssL468L
(dp1907
Vcity
p1908
Vseattle
p1909
sVtheater
p1910
Vpacific place 11 theater
p1911
sVtheater_chain
p1912
Vamc
p1913
sVstarttime
p1914
V9:30 pm
p1915
sVdate
p1916
Vtomorrow
p1917
sVmoviename
p1918
Vroom
p1919
ssL469L
(dp1920
Vcity
p1921
Vst
p1922
sVtheater
p1923
Vwehrenberg ronnies 20#imax 5320
p1924
sVmoviename
p1925
Vhow to be single
p1926
sVstarttime
p1927
V7:20
p1928
ssL470L
(dp1929
g1921
Vlouis
p1930
sg1923
g1924
sg1925
g1926
sg1927
g1928
ssL471L
(dp1931
g1921
Vsappington
p1932
sg1923
g1924
sg1925
g1926
sg1927
g1928
ssL472L
(dp1933
g1921
g1922
sg1923
Vblvd
p1934
sg1925
g1926
sg1927
g1928
ssL473L
(dp1935
g1921
g1930
sg1923
g1934
sg1925
g1926
sg1927
g1928
ssL474L
(dp1936
Vdate
p1937
V21-mar
p1938
sVcity
p1939
Vseattle
p1940
sVtheater
p1941
Vamc pacific place 11
p1942
sVmoviename
p1943
Vdeadpool
p1944
ssL475L
(dp1945
g1937
g1938
sg1939
Vbellevue
p1946
sg1941
g1942
sg1943
g1944
ssL476L
(dp1947
g1937
g1938
sg1939
g1940
sg1941
Vbellevue lincoln square cinemas
p1948
sg1943
g1944
ssL477L
(dp1949
g1937
g1938
sg1939
g1946
sg1941
g1948
sg1943
g1944
ssL478L
(dp1950
g1937
g1938
sg1939
g1940
sg1941
Vbig picture seattle
p1951
sg1943
g1944
ssL479L
(dp1952
Vdate
p1953
Vmarch 12th
p1954
sVcity
p1955
Vnorfolk
p1956
sVtheater
p1957
Vregal macarthur center stadium 18
p1958
sVmoviename
p1959
Vlondon has fallen
p1960
sVstarttime
p1961
V7pm
p1962
ssL480L
(dp1963
g1953
g1954
sg1955
g1956
sg1957
VRPX CINEMARK 18
p1964
sg1959
g1960
sg1961
g1962
ssL481L
(dp1965
g1953
g1954
sg1955
g1956
sg1957
Vregal
p1966
sg1959
g1960
sg1961
g1962
ssL482L
(dp1967
g1953
g1954
sg1955
g1956
sg1957
g1958
sg1959
g1960
sg1961
V7:10
p1968
ssL483L
(dp1969
g1953
g1954
sg1955
g1956
sg1957
g1964
sg1959
g1960
sg1961
g1968
ssL484L
(dp1970
Vdate
p1971
Vtonight
p1972
sVcity
p1973
Vseattle
p1974
sVtheater
p1975
Vregal meridian 16
p1976
sVmoviename
p1977
VLondon Has Fallen#Whiskey Tango Foxtrot#Zootopia#Eddie The Eagle#Gods of Egypt#Triple 9#The Witch#Where to Invade Next#Zoolander 2#Hail Caesar#Kung Fu Panda 3#Star Wars#The Big Short#The Danish Girl#more
p1978
ssL485L
(dp1979
g1971
g1972
sg1973
g1974
sg1975
g1976
sg1977
g1978
ssL486L
(dp1980
g1971
g1972
sg1973
g1974
sg1975
g1976
sg1977
g1978
ssL487L
(dp1981
g1971
g1972
sg1973
g1974
sg1975
g1976
sg1977
g1978
ssL488L
(dp1982
g1971
g1972
sg1973
g1974
sg1975
g1976
sg1977
Vzoolander 2
p1983
ssL489L
(dp1984
Vcity
p1985
Vst louis
p1986
sVtheater
p1987
Vchase park plaza cinemas
p1988
sVnumberofkids
p1989
V2
sVstarttime
p1990
Vafternoon
p1991
sVdate
p1992
Vthursday
p1993
sVmoviename
p1994
Vzootopia
p1995
ssL490L
(dp1996
g1985
g1986
sg1987
Vchase park plaza
p1997
sg1989
V2
sg1990
g1991
sg1992
g1993
sg1994
g1995
ssL491L
(dp1998
g1985
g1986
sg1987
g1988
sg1989
V2
sg1990
g1991
sg1992
g1993
sg1994
g1995
ssL492L
(dp1999
g1985
g1986
sg1987
g1997
sg1989
V2
sg1990
g1991
sg1992
g1993
sg1994
g1995
ssL493L
(dp2000
g1985
g1986
sg1987
g1988
sg1989
V2
sg1990
V11:00am
p2001
sg1992
g1993
sg1994
g1995
ssL494L
(dp2002
Vcity
p2003
Vseattle
p2004
ssL495L
(dp2005
Vdate
p2006
Vtomorrow
p2007
sVcity
p2008
Vseattle
p2009
sVtheater
p2010
Vamc lowes oak tree 6
p2011
sVmoviename
p2012
Vspotlight
p2013
sVstarttime
p2014
V7:25 pm
p2015
ssL496L
(dp2016
g2006
g2007
sg2008
g2009
sg2010
g2011
sg2012
g2013
sg2014
g2015
ssL497L
(dp2017
Vdate
p2018
Vtomorrow
p2019
sVcity
p2020
Vlos angeles
p2021
sVtheater
p2022
Vregal live stadium 14
p2023
sVmoviename
p2024
Vdeadpool
p2025
sVstarttime
p2026
V8pm
p2027
ssL498L
(dp2028
g2018
g2019
sg2020
VLos Angeles
p2029
sg2022
g2023
sg2024
g2025
sg2026
g2027
ssL499L
(dp2030
g2018
g2019
sg2020
g2021
sg2022
g2023
sg2024
g2025
sg2026
V8 pm
p2031
ssL500L
(dp2032
g2018
g2019
sg2020
g2029
sg2022
g2023
sg2024
g2025
sg2026
g2031
ssL501L
(dp2033
g2018
Vtoday
p2034
sg2020
g2021
sg2022
g2023
sg2024
g2025
sg2026
g2027
ssL502L
(dp2035
Vdate
p2036
Vthis weekend
p2037
sVcity
p2038
Vportland
p2039
sVtheater
p2040
Vregal lloyd center 10 & IMAX
p2041
sVmoviename
p2042
Vbatman moviename
p2043
sVstarttime
p2044
Vany time
p2045
ssL503L
(dp2046
g2036
g2037
sg2038
g2039
sg2040
VCentury Eastport 16
p2047
sg2042
g2043
sg2044
g2045
ssL504L
(dp2048
g2036
g2037
sg2038
g2039
sg2040
VCentury Clackmas Town Center
p2049
sg2042
g2043
sg2044
g2045
ssL505L
(dp2050
g2036
g2037
sg2038
g2039
sg2040
VXD
p2051
sg2042
g2043
sg2044
g2045
ssL506L
(dp2052
g2036
g2037
sg2038
g2039
sg2040
Vcentury Eastport 16
p2053
sg2042
g2043
sg2044
g2045
ssL507L
(dp2054
Vcity
p2055
Vseattle
p2056
sVtheater
p2057
Vtheaters all across seattle
p2058
sVvideo_format
p2059
V3d
p2060
sVstarttime
p2061
Vmatinee
p2062
sVdate
p2063
Vtomorrow
p2064
sVmoviename
p2065
Vzootopia
p2066
ssL508L
(dp2067
g2055
g2056
sg2057
VRegal Meridian 16
p2068
sg2059
g2060
sg2061
g2062
sg2063
g2064
sg2065
g2066
ssL509L
(dp2069
g2055
g2056
sg2057
VPacific Science Center
p2070
sg2059
g2060
sg2061
g2062
sg2063
g2064
sg2065
g2066
ssL510L
(dp2071
g2055
g2056
sg2057
VAdmiral Theater
p2072
sg2059
g2060
sg2061
g2062
sg2063
g2064
sg2065
g2066
ssL511L
(dp2073
g2055
g2056
sg2057
Vpacific science center
p2074
sg2059
g2060
sg2061
g2062
sg2063
g2064
sg2065
g2066
ssL512L
(dp2075
Vcity
p2076
Vbellevue
p2077
sVtheater
p2078
Vbellevue lincoln square cinemas
p2079
sVactor
p2080
Vryan reynolds
p2081
sVstarttime
p2082
V8:15pm
p2083
sVdate
p2084
Vtonight
p2085
sVmoviename
p2086
Vdeadpool
p2087
ssL513L
(dp2088
g2076
g2077
sg2078
Vamc
p2089
sg2080
g2081
sg2082
g2083
sg2084
g2085
sg2086
g2087
ssL514L
(dp2090
g2076
g2077
sg2078
g2079
sg2080
g2081
sg2082
g2083
sg2084
g2085
sg2086
g2087
ssL515L
(dp2091
g2076
g2077
sg2078
g2089
sg2080
g2081
sg2082
g2083
sg2084
g2085
sg2086
g2087
ssL516L
(dp2092
g2076
g2077
sg2078
g2079
sg2080
g2081
sg2082
g2083
sg2084
g2085
sg2086
g2087
ssL517L
(dp2093
Vdate
p2094
Vcoming saturday
p2095
sVcity
p2096
Vcampcreek area
p2097
ssL518L
(dp2098
Vcity
p2099
Vbellevue
p2100
sVtheater
p2101
Vregal thornton place stadium
p2102
sVvideo_format
p2103
V3d
p2104
sVstarttime
p2105
Vbetween 5pm and 6pm
p2106
sVdate
p2107
Vsaturday
p2108
sVmoviename
p2109
Vkung fu panda 3
p2110
ssL519L
(dp2111
g2099
g2100
sg2101
g2102
sg2103
g2104
sg2105
Vbetween 5 and 6pm
p2112
sg2107
g2108
sg2109
g2110
ssL520L
(dp2113
g2099
g2100
sg2101
g2102
sg2103
g2104
sg2105
V6:10pm
p2114
sg2107
g2108
sg2109
g2110
ssL521L
(dp2115
Vdate
p2116
Vtomorrow
p2117
sVcity
p2118
Vdetroit
p2119
sVmoviename
p2120
Vdeadpool
p2121
sVtheater
p2122
Vamc star fairlane 21
p2123
sVstarttime
p2124
V7pm
p2125
ssL522L
(dp2126
g2116
g2117
sg2118
g2119
sg2120
g2121
sg2122
g2123
sg2124
V7:05
p2127
ssL523L
(dp2128
Vdate
p2129
Vtomorrow
p2130
sVtheater
p2131
Vregency academy 6
p2132
sVmoviename
p2133
Vcreed
p2134
sVstarttime
p2135
Varound noon
p2136
ssL524L
(dp2137
g2129
g2130
sg2131
g2132
sg2133
g2134
sg2135
V1:00pm
p2138
ssL525L
(dp2139
Vcity
p2140
Vlos angeles
p2141
sVtheater
p2142
VRegal LA Live Stadium 14
p2143
sVvideo_format
p2144
V3d
p2145
sVstarttime
p2146
V8pm
p2147
sVdate
p2148
Vtomorrow
p2149
sVmoviename
p2150
Vzootopia
p2151
ssL526L
(dp2152
g2140
g2141
sg2142
g2143
sg2144
Vstandard
p2153
sg2146
g2147
sg2148
g2149
sg2150
g2151
ssL527L
(dp2154
g2140
g2141
sg2142
g2143
sg2144
g2145
sg2146
V7:10pm
p2155
sg2148
g2149
sg2150
g2151
ssL528L
(dp2156
g2140
g2141
sg2142
g2143
sg2144
g2153
sg2146
g2155
sg2148
g2149
sg2150
g2151
ssL529L
(dp2157
Vtheater_chain
p2158
Vamc lowes oak tree 6
p2159
sVcity
p2160
Vseattle
p2161
sVdate
p2162
Vtomorrow
p2163
sVmoviename
p2164
Vrisen
p2165
sVstarttime
p2166
V4:25 pm
p2167
ssL530L
(dp2168
Vcity
p2169
Varlington
p2170
sVtheater
p2171
Vcinemark tinseltown 9
p2172
sVactor
p2173
Vryan reynolds
p2174
sVstarttime
p2175
V10:05
p2176
sVdate
p2177
Vtonight
p2178
sVmoviename
p2179
Vdeadpool
p2180
ssL531L
(dp2181
Vdate
p2182
Vtomorrow
p2183
sVcity
p2184
Vseattle
p2185
sVtheater
p2186
Vamc pacific place 11 theater
p2187
sVmoviename
p2188
Vroom
p2189
sVstarttime
p2190
V9:30 pm
p2191
ssL532L
(dp2192
Vcity
p2193
Vseattle
p2194
sVmoviename
p2195
Vwhiskey tango foxtrot
p2196
sVtheater
p2197
Vregal meridian 16
p2198
sVstarttime
p2199
Vsoonest upcoming showing
p2200
ssL533L
(dp2201
g2193
g2194
sg2195
g2196
sg2197
g2198
sg2199
V9:00pm
p2202
ssL534L
(dp2203
Vcity
p2204
Vseattle
p2205
sVtheater
p2206
Vregal meridian 16
p2207
sVdate
p2208
Vtomorrow
p2209
sVstarttime
p2210
V7pm
p2211
sVtheater_chain
p2212
Vamc loews oak tree 6
p2213
sVmoviename
p2214
Vrisen race spotlight
p2215
ssL535L
(dp2216
g2204
g2205
sg2206
VAMC LOEWS OAK TREE 6 10006 aurora
p2217
sg2208
g2209
sg2210
g2211
sg2212
g2213
sg2214
g2215
ssL536L
(dp2218
g2204
g2205
sg2206
g2207
sg2208
g2209
sg2210
g2211
sg2212
g2213
sg2214
g2215
ssL537L
(dp2219
g2204
g2205
sg2206
g2217
sg2208
g2209
sg2210
g2211
sg2212
g2213
sg2214
g2215
ssL538L
(dp2220
g2204
g2205
sg2206
g2207
sg2208
g2209
sg2210
g2211
sg2212
g2213
sg2214
g2215
ssL539L
(dp2221
Vdate
p2222
Vtoday
p2223
sVcity
p2224
Vbirmingham
p2225
sVtheater
p2226
Vcarmike summit 16
p2227
sVmoviename
p2228
Vlondon had fallen
p2229
sVstarttime
p2230
Varound 2pm
p2231
ssL540L
(dp2232
g2222
g2223
sg2224
g2225
sg2226
g2227
sg2228
g2229
sg2230
V1:35 pm
p2233
ssL541L
(dp2234
Vdate
p2235
Vtomorrow
p2236
sVcity
p2237
Vseattle
p2238
sVtheater
p2239
Vregal meridian 16
p2240
sVmoviename
p2241
Vzootopia
p2242
sVstarttime
p2243
Vnight around 8pm
p2244
ssL542L
(dp2245
g2235
g2236
sg2237
Vbellevue
p2246
sg2239
g2240
sg2241
g2242
sg2243
g2244
ssL543L
(dp2247
g2235
g2236
sg2237
g2238
sg2239
Vbellevue lincoln square cinemas
p2248
sg2241
g2242
sg2243
g2244
ssL544L
(dp2249
g2235
g2236
sg2237
g2246
sg2239
g2248
sg2241
g2242
sg2243
g2244
ssL545L
(dp2250
g2235
g2236
sg2237
g2238
sg2239
g2240
sg2241
g2242
sg2243
g2244
ssL546L
(dp2251
Vdate
p2252
Vtomorrow
p2253
sVcity
p2254
Vseattle
p2255
sVtheater
p2256
Vamc lowes oak tree 6
p2257
sVmoviename
p2258
Vroom
p2259
sVstarttime
p2260
V4:50 pm
p2261
ssL547L
(dp2262
Vdate
p2263
Vtonight
p2264
sVcity
p2265
Vseattle
p2266
sVtheater
p2267
Vregal meridian 16
p2268
sVmoviename
p2269
Vzootopia
p2270
ssL548L
(dp2271
g2263
g2264
sg2265
g2266
sg2267
g2268
sg2269
g2270
ssL549L
(dp2272
g2263
g2264
sg2265
g2266
sg2267
g2268
sg2269
g2270
ssL550L
(dp2273
g2263
g2264
sg2265
g2266
sg2267
g2268
sg2269
g2270
ssL551L
(dp2274
g2263
g2264
sg2265
g2266
sg2267
g2268
sg2269
VWhiskey Tango Foxtrot
p2275
ssL552L
(dp2276
Vdate
p2277
Vtomorrow
p2278
sVcity
p2279
Vphiladelphia
p2280
sVtheater
p2281
VThe Pearl Theatre
p2282
sVmoviename
p2283
Vdeadpool
p2284
sVstarttime
p2285
V1:30pm
p2286
ssL553L
(dp2287
g2277
g2278
sg2279
g2280
sg2281
g2282
sg2283
g2284
sg2285
g2286
ssL554L
(dp2288
g2277
g2278
sg2279
g2280
sg2281
g2282
sg2283
g2284
sg2285
V4:30
p2289
ssL555L
(dp2290
g2277
g2278
sg2279
g2280
sg2281
g2282
sg2283
g2284
sg2285
g2289
ssL556L
(dp2291
g2277
g2278
sg2279
g2280
sg2281
g2282
sg2283
g2284
sg2285
V7:30pm
p2292
ssL557L
(dp2293
Vdate
p2294
Vtomorrow
p2295
sVcity
p2296
Vprinceton
p2297
sVtheater
p2298
Vamc marketfair 10
p2299
sVmoviename
p2300
Veddie the eagle
p2301
sVstarttime
p2302
V7pm
p2303
ssL558L
(dp2304
g2294
g2295
sg2296
g2297
sg2298
g2299
sg2300
g2301
sg2302
V6:45pm
p2305
ssL559L
(dp2306
g2294
g2295
sg2296
g2297
sg2298
g2299
sg2300
Vrace and risen
p2307
sg2302
g2303
ssL560L
(dp2308
g2294
g2295
sg2296
g2297
sg2298
g2299
sg2300
g2307
sg2302
g2305
ssL561L
(dp2309
Vdate
p2310
Vtomorrow
p2311
sVcity
p2312
Vbirmingham
p2313
sVtheater
p2314
Vcarmike summit 16
p2315
sVmoviename
p2316
Vdeadpool
p2317
sVstarttime
p2318
Varound 5pm
p2319
ssL562L
(dp2320
g2310
g2311
sg2312
g2313
sg2314
g2315
sg2316
g2317
sg2318
V4:20pm
p2321
ssL563L
(dp2322
g2310
g2311
sg2312
g2313
sg2314
g2315
sg2316
g2317
sg2318
V7:20pm
p2323
ssL564L
(dp2324
Vdate
p2325
Vtomorrow
p2326
sVcity
p2327
Vcarbondale
p2328
sVtheater
p2329
Vamc showplace carbondale 8
p2330
sVmoviename
p2331
Vlondon has fallen
p2332
sVstarttime
p2333
Vafternoon
p2334
ssL565L
(dp2335
g2325
g2326
sg2327
g2328
sg2329
Vamc university place
p2336
sg2331
g2332
sg2333
g2334
ssL566L
(dp2337
g2325
g2326
sg2327
g2328
sg2329
g2330
sg2331
g2332
sg2333
g2334
ssL567L
(dp2338
g2325
g2326
sg2327
g2328
sg2329
g2336
sg2331
g2332
sg2333
g2334
ssL568L
(dp2339
g2325
g2326
sg2327
g2328
sg2329
g2330
sg2331
g2332
sg2333
V2:30pm
p2340
ssL569L
(dp2341
Vdate
p2342
Vlast weekend
p2343
sVcity
p2344
Vbirmingham
p2345
sVtheater
p2346
Vcarmike summit 16
p2347
sVmoviename
p2348
Vzootopia
p2349
sVstarttime
p2350
V10:00am
p2351
ssL570L
(dp2352
g2342
g2343
sg2344
Vhoover
p2353
sg2346
g2347
sg2348
g2349
sg2350
g2351
ssL571L
(dp2354
g2342
g2343
sg2344
g2345
sg2346
Vcarmike patton creek
p2355
sg2348
g2349
sg2350
g2351
ssL572L
(dp2356
g2342
g2343
sg2344
g2353
sg2346
g2355
sg2348
g2349
sg2350
g2351
ssL573L
(dp2357
g2342
g2343
sg2344
g2345
sg2346
g2347
sg2348
g2349
sg2350
g2351
ssL574L
(dp2358
Vdate
p2359
Vthis saturday
p2360
sVcity
p2361
Vbirmingham
p2362
sVtheater
p2363
Vcarmike summit 16
p2364
sVmoviename
p2365
Vlondon has fallen
p2366
sVstarttime
p2367
V2:00 pm
p2368
ssL575L
(dp2369
g2359
g2360
sg2361
g2362
sg2363
g2364
sg2365
g2366
sg2367
V1:35pm
p2370
ssL576L
(dp2371
g2359
g2360
sg2361
g2362
sg2363
g2364
sg2365
Vgods of egypt
p2372
sg2367
g2368
ssL577L
(dp2373
g2359
g2360
sg2361
g2362
sg2363
g2364
sg2365
g2372
sg2367
g2370
ssL578L
(dp2374
g2359
g2360
sg2361
g2362
sg2363
g2364
sg2365
Vdeadpool
p2375
sg2367
g2368
ssL579L
(dp2376
Vdate
p2377
Vtomorrow
p2378
sVcity
p2379
Vseattle
p2380
sVtheater
p2381
Vregal meridian 16
p2382
sVmoviename
p2383
VThe big short
p2384
sVstarttime
p2385
V8:45 pm
p2386
ssL580L
(dp2387
Vdate
p2388
Vtoday
p2389
sVcity
p2390
Vseattle
p2391
sVtheater
p2392
Vregal meridian 16
p2393
sVmoviename
p2394
Vzoolander 2
p2395
sVstarttime
p2396
V2:00pm
p2397
ssL581L
(dp2398
g2388
g2389
sg2390
g2391
sg2392
g2393
sg2394
g2395
sg2396
g2397
ssL582L
(dp2399
g2388
g2389
sg2390
g2391
sg2392
g2393
sg2394
g2395
sg2396
g2397
ssL583L
(dp2400
g2388
g2389
sg2390
g2391
sg2392
g2393
sg2394
g2395
sg2396
g2397
ssL584L
(dp2401
g2388
g2389
sg2390
g2391
sg2392
g2393
sg2394
g2395
sg2396
V4:30pm
p2402
ssL585L
(dp2403
Vtheater_chain
p2404
Vamc pacific place 11
p2405
sVdate
p2406
Vfriday
p2407
sVtheater
p2408
Vamc pacific place
p2409
sVmoviename
p2410
Vdeadpool
p2411
sVstarttime
p2412
Varound 8pm
p2413
ssL586L
(dp2414
g2404
g2405
sg2406
g2407
sg2408
g2409
sg2410
g2411
sg2412
V8:10PM
p2415
ssL587L
(dp2416
Vcity
p2417
Vbuford
p2418
sVtheater
p2419
Vmall of georgia movie theater
p2420
sVactress
p2421
Vtina fey
p2422
sVstarttime
p2423
V10:40pm
p2424
sVdate
p2425
Vfriday
p2426
sVmoviename
p2427
Vzootopia
p2428
ssL588L
(dp2429
g2417
g2418
sg2419
g2420
sg2421
g2422
sg2423
g2424
sg2425
g2426
sg2427
g2428
ssL589L
(dp2430
g2417
g2418
sg2419
g2420
sg2421
g2422
sg2423
g2424
sg2425
g2426
sg2427
g2428
ssL590L
(dp2431
g2417
g2418
sg2419
g2420
sg2421
g2422
sg2423
g2424
sg2425
g2426
sg2427
g2428
ssL591L
(dp2432
g2417
g2418
sg2419
g2420
sg2421
g2422
sg2423
g2424
sg2425
g2426
sg2427
VWhiskey Tango Foxtrot
p2433
ssL592L
(dp2434
Vdate
p2435
Vtomorrow
p2436
sVcity
p2437
Vseattle
p2438
sVtheater
p2439
Vregal meridian 16
p2440
sVmoviename
p2441
Vzootopia
p2442
sVstarttime
p2443
Vevening around 6pm
p2444
ssL593L
(dp2445
g2435
g2436
sg2437
g2438
sg2439
Vregal thornton place
p2446
sg2441
g2442
sg2443
g2444
ssL594L
(dp2447
g2435
g2436
sg2437
g2438
sg2439
g2440
sg2441
g2442
sg2443
V5:20
p2448
ssL595L
(dp2449
g2435
g2436
sg2437
g2438
sg2439
g2446
sg2441
g2442
sg2443
g2448
ssL596L
(dp2450
g2435
g2436
sg2437
g2438
sg2439
g2440
sg2441
g2442
sg2443
V6:30 pm
p2451
ssL597L
(dp2452
Vdate
p2453
Vmarch 12
p2454
sVcity
p2455
VFresno
p2456
sVtheater
p2457
Vcurrent
p2458
sVmoviename
p2459
Vdeadpool
p2460
sVstarttime
p2461
Va lot
p2462
ssL598L
(dp2463
g2453
g2454
sg2455
g2456
sg2457
VVisalia
p2464
sg2459
g2460
sg2461
g2462
ssL599L
(dp2465
g2453
g2454
sg2455
g2456
sg2457
Vregal visalia stadium 10
p2466
sg2459
g2460
sg2461
g2462
ssL600L
(dp2467
g2453
Vweekend
p2468
sg2455
g2456
sg2457
g2458
sg2459
g2460
sg2461
g2462
ssL601L
(dp2469
g2453
g2468
sg2455
g2456
sg2457
g2464
sg2459
g2460
sg2461
g2462
ssL602L
(dp2470
Vcity
p2471
Vseattle
p2472
sVmoviename
p2473
Vwhiskey tango foxtrot
p2474
sVtheater
p2475
Vregal meridian 16
p2476
sVstarttime
p2477
Vsonnest
p2478
ssL603L
(dp2479
g2471
g2472
sg2473
g2474
sg2475
g2476
sg2477
V9:00pm
p2480
ssL604L
(dp2481
Vcity
p2482
Vlas vegas
p2483
sVtheater
p2484
Vregal colonnade 14
p2485
sVvideo_format
p2486
V3d#standard
p2487
sVstarttime
p2488
Vmatinee
p2489
sVdate
p2490
Vtomorrow
p2491
sVmoviename
p2492
Vzootopia
p2493
ssL605L
(dp2494
g2482
g2483
sg2484
g2485
sg2486
V3d
p2495
sg2488
g2489
sg2490
g2491
sg2492
g2493
ssL606L
(dp2496
g2482
g2483
sg2484
g2485
sg2486
g2487
sg2488
V1:30pm
p2497
sg2490
g2491
sg2492
g2493
ssL607L
(dp2498
g2482
g2483
sg2484
g2485
sg2486
g2495
sg2488
g2497
sg2490
g2491
sg2492
g2493
ssL608L
(dp2499
g2482
g2483
sg2484
g2485
sg2486
g2487
sg2488
V1:30
p2500
sg2490
g2491
sg2492
g2493
ssL609L
(dp2501
Vdate
p2502
Vmarch 15th
p2503
sVcity
p2504
Vseattle
p2505
sVtheater
p2506
Vregal meridian 16
p2507
sVmoviename
p2508
Vzoolander 2
p2509
sVstarttime
p2510
V9:30 pm
p2511
ssL610L
(dp2512
g2502
g2503
sg2504
Vwaynesboro
p2513
sg2506
g2507
sg2508
g2509
sg2510
g2511
ssL611L
(dp2514
g2502
g2503
sg2504
Vnorfolk
p2515
sg2506
g2507
sg2508
g2509
sg2510
g2511
ssL612L
(dp2516
g2502
g2503
sg2504
g2505
sg2506
Vzeus
p2517
sg2508
g2509
sg2510
g2511
ssL613L
(dp2518
g2502
g2503
sg2504
g2513
sg2506
g2517
sg2508
g2509
sg2510
g2511
ssL614L
(dp2519
Vcity
p2520
Vla
p2521
sVtheater
p2522
Vcreed
p2523
sVvideo_format
p2524
V3d
p2525
sVstarttime
p2526
V7pm
p2527
sVdate
p2528
Vtomorrow
p2529
sVmoviename
p2530
Vcreed
p2531
ssL615L
(dp2532
g2520
g2521
sg2522
Vpacific sherman oaks 5
p2533
sg2524
g2525
sg2526
g2527
sg2528
g2529
sg2530
g2531
ssL616L
(dp2534
g2520
g2521
sg2522
Vamc la mirada 7
p2535
sg2524
g2525
sg2526
g2527
sg2528
g2529
sg2530
g2531
ssL617L
(dp2536
g2520
g2521
sg2522
VAMC La Mirada
p2537
sg2524
g2525
sg2526
g2527
sg2528
g2529
sg2530
g2531
ssL618L
(dp2538
g2520
g2521
sg2522
Vamc
p2539
sg2524
g2525
sg2526
g2527
sg2528
g2529
sg2530
g2531
ssL619L
(dp2540
Vdate
p2541
Vtoday
p2542
sVcity
p2543
Vbirmingham
p2544
sVtheater
p2545
Vcarmike summit 16
p2546
sVmoviename
p2547
Vzootopia
p2548
sVstarttime
p2549
V2pm
p2550
ssL620L
(dp2551
g2541
g2542
sg2543
g2544
sg2545
V15
p2552
sg2547
g2548
sg2549
g2550
ssL621L
(dp2553
g2541
g2542
sg2543
g2544
sg2545
g2546
sg2547
g2548
sg2549
g2550
ssL622L
(dp2554
g2541
g2542
sg2543
g2544
sg2545
g2552
sg2547
g2548
sg2549
g2550
ssL623L
(dp2555
g2541
g2542
sg2543
g2544
sg2545
g2546
sg2547
g2548
sg2549
V1:30
p2556
ssL624L
(dp2557
Vdate
p2558
Vtomorrow
p2559
sVcity
p2560
Vseattle
p2561
sVtheater
p2562
Vregal meridian 16
p2563
sVmoviename
p2564
Vspotlight
p2565
sVstarttime
p2566
V9:00 pm
p2567
ssL625L
(dp2568
Vdate
p2569
Vthis friday
p2570
sVmoviename
p2571
Vzootopia
p2572
sVtheater
p2573
Vbuford georgia
p2574
sVstarttime
p2575
Vnight
p2576
sVactor
p2577
Vtina fey
p2578
ssL626L
(dp2579
g2569
g2570
sg2571
g2572
sg2573
VWhiskey Tango Foxtrot
p2580
sg2575
g2576
sg2577
g2578
ssL627L
(dp2581
g2569
g2570
sg2571
g2572
sg2573
Vmall of georgia
p2582
sg2575
g2576
sg2577
g2578
ssL628L
(dp2583
g2569
g2570
sg2571
g2572
sg2573
g2574
sg2575
g2576
sg2577
g2578
ssL629L
(dp2584
g2569
g2570
sg2571
g2572
sg2573
g2580
sg2575
g2576
sg2577
g2578
ssL630L
(dp2585
Vdate
p2586
Vjune 17 2016
p2587
sVmoviename
p2588
Vavengers
p2589
sVtheater
p2590
V
ssL631L
(dp2591
g2586
g2587
sg2588
g2589
sg2590
Vfinding dory
p2592
ssL632L
(dp2593
g2586
g2587
sg2588
Vfinding dory
p2594
sg2590
V
ssL633L
(dp2595
g2586
g2587
sg2588
g2594
sg2590
g2592
ssL634L
(dp2596
Vdate
p2597
Vtomorrow
p2598
sVcity
p2599
Vseattle
p2600
sVtheater
p2601
Vregal meridian 16
p2602
sVmoviename
p2603
Vspotlight
p2604
sVstarttime
p2605
V9:00 pm
p2606
ssL635L
(dp2607
Vdate
p2608
Vtomorrow
p2609
sVcity
p2610
Vseattle
p2611
sVtheater
p2612
Vregal meridian 16
p2613
sVmoviename
p2614
Vhail caesar
p2615
sVstarttime
p2616
V8:45 pm
p2617
ssL636L
(dp2618
g2608
g2609
sg2610
g2611
sg2612
g2613
sg2614
g2615
sg2616
V8:45
p2619
ssL637L
(dp2620
Vdate
p2621
Vtoday
p2622
sVcity
p2623
Vbirmingham
p2624
sVtheater
p2625
Vcarmike 16
p2626
sVmoviename
p2627
Vzootopia
p2628
sVstarttime
p2629
V2pm
p2630
ssL638L
(dp2631
g2621
g2622
sg2623
g2624
sg2625
Vcarmike the summit 16
p2632
sg2627
g2628
sg2629
g2630
ssL639L
(dp2633
g2621
g2622
sg2623
g2624
sg2625
g2626
sg2627
g2628
sg2629
V1:30pm
p2634
ssL640L
(dp2635
g2621
g2622
sg2623
g2624
sg2625
g2632
sg2627
g2628
sg2629
g2634
ssL641L
(dp2636
Vdate
p2637
Vtonight
p2638
sVcity
p2639
Vseattle
p2640
sVtheater
p2641
Vamc pacific place 11
p2642
sVmoviename
p2643
Vdeadpool
p2644
sVstarttime
p2645
V6:10pm
p2646
ssL642L
(dp2647
g2637
g2638
sg2639
Vbellevue
p2648
sg2641
g2642
sg2643
g2644
sg2645
g2646
ssL643L
(dp2649
g2637
g2638
sg2639
g2640
sg2641
Vbellevue lincoln square cinemas
p2650
sg2643
g2644
sg2645
g2646
ssL644L
(dp2651
g2637
g2638
sg2639
g2648
sg2641
g2650
sg2643
g2644
sg2645
g2646
ssL645L
(dp2652
g2637
g2638
sg2639
g2640
sg2641
g2642
sg2643
g2644
sg2645
g2646
ssL646L
(dp2653
Vdate
p2654
Vtomorrow
p2655
sVcity
p2656
VClear Lake
p2657
sVtheater
p2658
Vlake theater
p2659
sVmoviename
p2660
Vdeadpool
p2661
sVstarttime
p2662
V7 pm
p2663
ssL647L
(dp2664
g2654
g2655
sg2656
g2657
sg2658
VMason city IA cinema west
p2665
sg2660
g2661
sg2662
g2663
ssL648L
(dp2666
g2654
g2655
sg2656
g2657
sg2658
Vcinema west
p2667
sg2660
g2661
sg2662
g2663
ssL649L
(dp2668
g2654
g2655
sg2656
g2657
sg2658
g2659
sg2660
g2661
sg2662
V7pm
p2669
ssL650L
(dp2670
g2654
g2655
sg2656
g2657
sg2658
g2665
sg2660
g2661
sg2662
g2669
ssL651L
(dp2671
Vtheater_chain
p2672
Vamc showplace carbondale 8
p2673
sVcity
p2674
Vdu quoin
p2675
sVmoviename
p2676
Vstar wars
p2677
sVstarttime
p2678
Vanytime after 6pm
p2679
sVdate
p2680
VFriday the 11th
p2681
ssL652L
(dp2682
g2672
g2673
sg2674
Vcarbondale
p2683
sg2676
g2677
sg2678
g2679
sg2680
g2681
ssL653L
(dp2684
g2672
g2673
sg2674
VDu Quoin
p2685
sg2676
g2677
sg2678
g2679
sg2680
g2681
ssL654L
(dp2686
g2672
g2673
sg2674
g2675
sg2676
g2677
sg2678
g2679
sg2680
g2681
ssL655L
(dp2687
g2672
g2673
sg2674
g2683
sg2676
g2677
sg2678
g2679
sg2680
g2681
ssL656L
(dp2688
Vdate
p2689
Vwednesday
p2690
sVcity
p2691
Vsan francisco
p2692
sVtheater
p2693
Vcarmike 12
p2694
sVmoviename
p2695
Vwhiskey tango foxtrot
p2696
sVstarttime
p2697
Varound 6pm
p2698
ssL657L
(dp2699
g2689
g2690
sg2691
Valtoona
p2700
sg2693
g2694
sg2695
g2696
sg2697
g2698
ssL658L
(dp2701
g2689
g2690
sg2691
g2692
sg2693
g2694
sg2695
g2696
sg2697
V5pm
p2702
ssL659L
(dp2703
g2689
g2690
sg2691
g2700
sg2693
g2694
sg2695
g2696
sg2697
g2702
ssL660L
(dp2704
g2689
g2690
sg2691
g2692
sg2693
g2694
sg2695
g2696
sg2697
V7:40pm
p2705
ssL661L
(dp2706
Vtheater_chain
p2707
Vamc pacific place 11
p2708
sVcity
p2709
Vseattle
p2710
sVdate
p2711
Vtomorrow
p2712
sVstarttime
p2713
V7:00 pm
p2714
ssL662L
(dp2715
Vdate
p2716
Vtomorrow
p2717
sVcity
p2718
Vseattle
p2719
sVtheater
p2720
Vregal meridian 16
p2721
sVmoviename
p2722
Vhail caesar
p2723
sVstarttime
p2724
V8:45 pm
p2725
ssL663L
(dp2726
Vdate
p2727
Vfriday
p2728
sVcity
p2729
Vportland
p2730
sVtheater
p2731
VLiving Room Theaters Century Eastport 16
p2732
sVmoviename
p2733
Vstar wars
p2734
sVstarttime
p2735
Vbetween 8 and 10 pm
p2736
ssL664L
(dp2737
g2727
g2728
sg2729
g2730
sg2731
VCentury Clackamas Town Center
p2738
sg2733
g2734
sg2735
g2736
ssL665L
(dp2739
g2727
g2728
sg2729
g2730
sg2731
VXD
p2740
sg2733
g2734
sg2735
g2736
ssL666L
(dp2741
g2727
g2728
sg2729
g2730
sg2731
VLiving Room Theaters
p2742
sg2733
g2734
sg2735
g2736
ssL667L
(dp2743
g2727
g2728
sg2729
g2730
sg2731
g2732
sg2733
g2734
sg2735
V9:25pm
p2744
ssL668L
(dp2745
Vcity
p2746
Vseattle
p2747
sVtheater
p2748
Vregal meridian 16
p2749
sVprice
p2750
Vcheapest
p2751
sVstarttime
p2752
V2:00pm
p2753
sVdate
p2754
Vtoday
p2755
sVmoviename
p2756
Vzoolander 2
p2757
ssL669L
(dp2758
g2746
g2747
sg2748
g2749
sg2750
g2751
sg2752
g2753
sg2754
g2755
sg2756
g2757
ssL670L
(dp2759
g2746
g2747
sg2748
g2749
sg2750
g2751
sg2752
V4:30pm
p2760
sg2754
g2755
sg2756
g2757
ssL671L
(dp2761
g2746
g2747
sg2748
g2749
sg2750
g2751
sg2752
g2760
sg2754
g2755
sg2756
g2757
ssL672L
(dp2762
g2746
g2747
sg2748
g2749
sg2750
g2751
sg2752
V7:00pm
p2763
sg2754
g2755
sg2756
g2757
ssL673L
(dp2764
Vcity
p2765
Vlos angeles
p2766
sVtheater
p2767
Vregal la live stadium 14
p2768
sVdate
p2769
Vtonight
p2770
sVstarttime
p2771
V8 pm
p2772
sVtheater_chain
p2773
Vamc
p2774
sVmoviename
p2775
Vdeadpool
p2776
ssL674L
(dp2777
g2765
g2766
sg2767
g2768
sg2769
g2770
sg2771
V12:00pm
p2778
sg2773
g2774
sg2775
g2776
ssL675L
(dp2779
g2765
g2766
sg2767
g2768
sg2769
g2770
sg2771
V1:00pm
p2780
sg2773
g2774
sg2775
g2776
ssL676L
(dp2781
g2765
g2766
sg2767
g2768
sg2769
g2770
sg2771
V3:00pm
p2782
sg2773
g2774
sg2775
g2776
ssL677L
(dp2783
g2765
g2766
sg2767
g2768
sg2769
g2770
sg2771
V6:00pm
p2784
sg2773
g2774
sg2775
g2776
ssL678L
(dp2785
Vdate
p2786
Vweekend
p2787
ssL679L
(dp2788
Vcity
p2789
Vorlando
p2790
sVtheater
p2791
Vamc west oaks 14
p2792
sVvideo_format
p2793
Vstandard
p2794
sVstarttime
p2795
Varound 6 pm
p2796
sVdate
p2797
Vtomorrow
p2798
sVmoviename
p2799
Vkung fu panda 3
p2800
ssL680L
(dp2801
g2789
g2790
sg2791
g2792
sg2793
V3d
p2802
sg2795
g2796
sg2797
g2798
sg2799
g2800
ssL681L
(dp2803
g2789
g2790
sg2791
g2792
sg2793
g2794
sg2795
V1:30pm
p2804
sg2797
g2798
sg2799
g2800
ssL682L
(dp2805
g2789
g2790
sg2791
g2792
sg2793
g2802
sg2795
g2804
sg2797
g2798
sg2799
g2800
ssL683L
(dp2806
g2789
g2790
sg2791
g2792
sg2793
g2794
sg2795
V1:30 pm
p2807
sg2797
g2798
sg2799
g2800
ssL684L
(dp2808
Vdate
p2809
Vtomorrow
p2810
sVcity
p2811
Vregency academy 6 theater
p2812
sVmoviename
p2813
Vcreed
p2814
sVtheater
p2815
Vregency academy
p2816
sVstarttime
p2817
Varound noon
p2818
ssL685L
(dp2819
g2809
g2810
sg2811
g2812
sg2813
g2814
sg2815
g2816
sg2817
V1:00pm
p2820
ssL686L
(dp2821
Vdate
p2822
Vtomorrow
p2823
sVcity
p2824
Vseattle
p2825
sVtheater
p2826
Vregal meridian 16
p2827
sVmoviename
p2828
Vlondon has fallen
p2829
sVstarttime
p2830
V9:20 pm
p2831
ssL687L
(dp2832
g2822
g2823
sg2824
g2825
sg2826
g2827
sg2828
g2829
sg2830
g2831
ssL688L
(dp2833
g2822
g2823
sg2824
g2825
sg2826
g2827
sg2828
g2829
sg2830
g2831
ssL689L
(dp2834
Vdate
p2835
Vtomorrow
p2836
sVcity
p2837
Vseattle
p2838
sVtheater
p2839
Vregal meridian 16
p2840
sVmoviename
p2841
Vspotlight
p2842
sVstarttime
p2843
V9:00 pm
p2844
ssL690L
(dp2845
Vcity
p2846
Vbaltimore
p2847
sVtheater
p2848
Vcinemakr egyptian 24
p2849
sVvideo_format
p2850
V3d
p2851
sVstarttime
p2852
V3:20pm
p2853
sVdate
p2854
Vfriday
p2855
sVmoviename
p2856
Vzootopia
p2857
ssL691L
(dp2858
g2846
g2847
sg2848
g2849
sg2850
g2851
sg2852
V9:45pm
p2859
sg2854
g2855
sg2856
g2857
ssL692L
(dp2860
g2846
g2847
sg2848
g2849
sg2850
g2851
sg2852
g2853
sg2854
V3/11
p2861
sg2856
g2857
ssL693L
(dp2862
g2846
g2847
sg2848
g2849
sg2850
g2851
sg2852
g2859
sg2854
g2861
sg2856
g2857
ssL694L
(dp2863
g2846
g2847
sg2848
g2849
sg2850
g2851
sg2852
g2853
sg2854
g2855
sg2856
Vgods of egypt
p2864
ssL695L
(dp2865
Vdate
p2866
Vtomorrow
p2867
sVcity
p2868
Vseattle
p2869
sVtheater
p2870
Vamc lowes oak tree 6
p2871
sVmoviename
p2872
Vspotlight
p2873
sVstarttime
p2874
V7:25 pm
p2875
ssL696L
(dp2876
g2866
g2867
sg2868
g2869
sg2870
g2871
sg2872
g2873
sg2874
g2875
ssL697L
(dp2877
g2866
g2867
sg2868
g2869
sg2870
g2871
sg2872
g2873
sg2874
g2875
ssL698L
(dp2878
Vdate
p2879
Vtomorrow night
p2880
sVcity
p2881
Vlos angeles
p2882
sVmoviename
p2883
Vdeadpool
p2884
sVtheater
p2885
Vpacific theatres
p2886
sVstarttime
p2887
V8:05
p2888
ssL699L
(dp2889
g2879
Vtomorrow
p2890
sg2881
g2882
sg2883
g2884
sg2885
g2886
sg2887
g2888
ssL700L
(dp2891
g2879
Vfriday
p2892
sg2881
g2882
sg2883
g2884
sg2885
g2886
sg2887
g2888
ssL701L
(dp2893
g2879
g2880
sg2881
g2882
sg2883
g2884
sg2885
Vpacific theater
p2894
sg2887
g2888
ssL702L
(dp2895
g2879
g2890
sg2881
g2882
sg2883
g2884
sg2885
g2894
sg2887
g2888
ssL703L
(dp2896
Vdate
p2897
Vtomorrow
p2898
sVmoviename
p2899
Vthe witch
p2900
sVtheater
p2901
Vcinemar downey
p2902
sVstarttime
p2903
Vearly
p2904
ssL704L
(dp2905
g2897
g2898
sg2899
g2900
sg2901
Vamc theaters puente hills
p2906
sg2903
g2904
ssL705L
(dp2907
g2897
g2898
sg2899
g2900
sg2901
g2902
sg2903
g2904
ssL706L
(dp2908
g2897
g2898
sg2899
g2900
sg2901
g2906
sg2903
g2904
ssL707L
(dp2909
g2897
g2898
sg2899
g2900
sg2901
g2902
sg2903
V10:35
p2910
ssL708L
(dp2911
Vdate
p2912
Vtomorrow
p2913
sVcity
p2914
Vjohnstown
p2915
sVtheater
p2916
VRichland Cinemas
p2917
sVmoviename
p2918
Vdeadpool
p2919
sVstarttime
p2920
Vbetween 8 and 9pm
p2921
ssL709L
(dp2922
g2912
g2913
sg2914
g2915
sg2916
Vrichland cinemas
p2923
sg2918
g2919
sg2920
g2921
ssL710L
(dp2924
g2912
g2913
sg2914
g2915
sg2916
g2917
sg2918
g2919
sg2920
V7:20pm
p2925
ssL711L
(dp2926
g2912
g2913
sg2914
g2915
sg2916
g2923
sg2918
g2919
sg2920
g2925
ssL712L
(dp2927
g2912
g2913
sg2914
g2915
sg2916
g2917
sg2918
g2919
sg2920
V9:50 pm
p2928
ssL713L
(dp2929
Vcity
p2930
Vportland
p2931
sVtheater
p2932
Vliving room theaters
p2933
sVvideo_format
p2934
V3d
p2935
sVdate
p2936
Vfriday evening
p2937
sVstarttime
p2938
V10 pm
p2939
sVtheater_chain
p2940
Vcentury eastport 16
p2941
sVmoviename
p2942
Vstar wars
p2943
ssL714L
(dp2944
g2930
g2931
sg2932
Vcentury eastport 16
p2945
sg2934
g2935
sg2936
g2937
sg2938
g2939
sg2940
g2941
sg2942
g2943
ssL715L
(dp2946
g2930
g2931
sg2932
g2933
sg2934
Vstandard
p2947
sg2936
g2937
sg2938
g2939
sg2940
g2941
sg2942
g2943
ssL716L
(dp2948
g2930
g2931
sg2932
g2945
sg2934
g2947
sg2936
g2937
sg2938
g2939
sg2940
g2941
sg2942
g2943
ssL717L
(dp2949
g2930
g2931
sg2932
g2933
sg2934
g2935
sg2936
g2937
sg2938
V9:25
p2950
sg2940
g2941
sg2942
g2943
ssL718L
(dp2951
Vdate
p2952
V7th
p2953
sVcity
p2954
Vseattle
p2955
sVtheater
p2956
V...
p2957
sVmoviename
p2958
Vkung fu panda 3
p2959
sVstarttime
p2960
Vmatinee
p2961
ssL719L
(dp2962
g2952
g2953
sg2954
Vbellevue
p2963
sg2956
g2957
sg2958
g2959
sg2960
g2961
ssL720L
(dp2964
g2952
g2953
sg2954
g2955
sg2956
Vregal meridian 16
p2965
sg2958
g2959
sg2960
g2961
ssL721L
(dp2966
g2952
g2953
sg2954
g2963
sg2956
g2965
sg2958
g2959
sg2960
g2961
ssL722L
(dp2967
g2952
g2953
sg2954
g2955
sg2956
Vbellevue lincoln square cinemas
p2968
sg2958
g2959
sg2960
g2961
ssL723L
(dp2969
Vdate
p2970
Vtomorrow
p2971
sVcity
p2972
Vseattle
p2973
sVtheater
p2974
Vamc pacific place 11 theater
p2975
sVmoviename
p2976
Vroom
p2977
sVstarttime
p2978
V9:30 pm
p2979
ssL724L
(dp2980
Vcity
p2981
Vlos angeles
p2982
sVmoviename
p2983
Vthe witch
p2984
sVtheater
p2985
Vregal la live stadium 14
p2986
sVstarttime
p2987
Vfrom noon to 4pm
p2988
ssL725L
(dp2989
g2981
g2982
sg2983
g2984
sg2985
g2986
sg2987
V8:30pm
p2990
ssL726L
(dp2991
g2981
g2982
sg2983
g2984
sg2985
g2986
sg2987
V11:00pm
p2992
ssL727L
(dp2993
g2981
g2982
sg2983
g2984
sg2985
g2986
sg2987
V11pm
p2994
ssL728L
(dp2995
Vdate
p2996
Vtomorrow
p2997
sVtheater
p2998
VImagine theater Shelby Township
p2999
sVmoviename
p3000
Vstar wars
p3001
sVstarttime
p3002
Vafternoon
p3003
ssL729L
(dp3004
Vdate
p3005
Vtomorrow
p3006
sVcity
p3007
Vphiladelphia
p3008
sVtheater
p3009
Vthe pearl theatre
p3010
sVmoviename
p3011
Vdeadpool
p3012
sVstarttime
p3013
V1:30pm
p3014
ssL730L
(dp3015
g3005
g3006
sg3007
g3008
sg3009
g3010
sg3011
g3012
sg3013
g3014
ssL731L
(dp3016
g3005
g3006
sg3007
g3008
sg3009
g3010
sg3011
g3012
sg3013
V4:30pm
p3017
ssL732L
(dp3018
g3005
g3006
sg3007
g3008
sg3009
g3010
sg3011
g3012
sg3013
g3017
ssL733L
(dp3019
g3005
g3006
sg3007
g3008
sg3009
g3010
sg3011
g3012
sg3013
V7:30pm
p3020
ssL734L
(dp3021
Vdate
p3022
Vtomorrow
p3023
sVcity
p3024
Vseattle
p3025
sVtheater
p3026
Vregal meridian 16
p3027
sVmoviename
p3028
Vzootopia
p3029
sVstarttime
p3030
Vnight
p3031
ssL735L
(dp3032
g3022
g3023
sg3024
g3025
sg3026
Vregal meridian
p3033
sg3028
g3029
sg3030
g3031
ssL736L
(dp3034
g3022
g3023
sg3024
g3025
sg3026
g3027
sg3028
g3029
sg3030
g3031
ssL737L
(dp3035
g3022
g3023
sg3024
g3025
sg3026
g3033
sg3028
g3029
sg3030
g3031
ssL738L
(dp3036
g3022
g3023
sg3024
g3025
sg3026
g3027
sg3028
g3029
sg3030
g3031
ssL739L
(dp3037
Vcity
p3038
Vnorthern san francisco
p3039
sVtheater
p3040
Vamc van ness 14
p3041
sVvideo_format
p3042
V3d
p3043
sVstarttime
p3044
V2:25pm
p3045
sVdate
p3046
Vtomorrow afternoon
p3047
sVmoviename
p3048
Vkung fu panda 3
p3049
ssL740L
(dp3050
g3038
g3039
sg3040
Vcentury 20 daly city
p3051
sg3042
g3043
sg3044
g3045
sg3046
g3047
sg3048
g3049
ssL741L
(dp3052
g3038
g3039
sg3040
Vamc
p3053
sg3042
g3043
sg3044
g3045
sg3046
g3047
sg3048
g3049
ssL742L
(dp3054
g3038
g3039
sg3040
g3041
sg3042
Vstandard
p3055
sg3044
g3045
sg3046
g3047
sg3048
g3049
ssL743L
(dp3056
g3038
g3039
sg3040
g3051
sg3042
g3055
sg3044
g3045
sg3046
g3047
sg3048
g3049
ssL744L
(dp3057
Vcity
p3058
Vseattle
p3059
sVtheater
p3060
Vregal meridian 16
p3061
sVvideo_format
p3062
V3d
p3063
sVstarttime
p3064
V9:10 pm
p3065
sVdate
p3066
Vtomorrow
p3067
sVmoviename
p3068
Vzootopia
p3069
ssL745L
(dp3070
Vdate
p3071
Vtonight
p3072
sVcity
p3073
Vseattle
p3074
sVtheater
p3075
Vregal meridian 16
p3076
sVmoviename
p3077
Vzootopia
p3078
ssL746L
(dp3079
g3071
g3072
sg3073
g3074
sg3075
g3076
sg3077
g3078
ssL747L
(dp3080
g3071
g3072
sg3073
g3074
sg3075
g3076
sg3077
g3078
ssL748L
(dp3081
g3071
g3072
sg3073
g3074
sg3075
g3076
sg3077
g3078
ssL749L
(dp3082
g3071
g3072
sg3073
g3074
sg3075
g3076
sg3077
VWhiskey Tango Foxtrot
p3083
ssL750L
(dp3084
Vdate
p3085
Vtomorrow
p3086
sVcity
p3087
Vseattle
p3088
sVtheater
p3089
Vamc pacific place 11 theater
p3090
sVmoviename
p3091
Vdeadpool
p3092
sVstarttime
p3093
V9:00 pm
p3094
ssL751L
(dp3095
Vcity
p3096
Vseattle
p3097
sVtheater
p3098
Vbellevue lincoln square cinemas
p3099
sVnumberofkids
p3100
V2
sVstarttime
p3101
Vnight
p3102
sVdate
p3103
Vtomorrow
p3104
sVmoviename
p3105
Vzootopia
p3106
ssL752L
(dp3107
g3096
Vst louis
p3108
sg3098
g3099
sg3100
V2
sg3101
g3102
sg3103
g3104
sg3105
g3106
ssL753L
(dp3109
g3096
Vbellevue
p3110
sg3098
g3099
sg3100
V2
sg3101
g3102
sg3103
g3104
sg3105
g3106
ssL754L
(dp3111
g3096
g3097
sg3098
g3099
sg3100
V2
sg3101
g3102
sg3103
g3104
sg3105
g3106
ssL755L
(dp3112
g3096
g3108
sg3098
g3099
sg3100
V2
sg3101
g3102
sg3103
g3104
sg3105
g3106
ssL756L
(dp3113
Vcity
p3114
Vknoxville
p3115
sVtheater
p3116
Vcarmike 10
p3117
sVvideo_format
p3118
V3d
p3119
sVstarttime
p3120
Vevening around 7
p3121
sVdate
p3122
Vtomorrow
p3123
sVmoviename
p3124
Vthe witch
p3125
ssL757L
(dp3126
g3114
g3115
sg3116
Vplease
p3127
sg3118
g3119
sg3120
g3121
sg3122
g3123
sg3124
g3125
ssL758L
(dp3128
g3114
g3115
sg3116
g3117
sg3118
g3119
sg3120
V7:30pm
p3129
sg3122
g3123
sg3124
g3125
ssL759L
(dp3130
g3114
g3115
sg3116
g3127
sg3118
g3119
sg3120
g3129
sg3122
g3123
sg3124
g3125
ssL760L
(dp3131
Vdate
p3132
Vtomorrow
p3133
sVcity
p3134
Vseattle
p3135
sVtheater
p3136
Vamc pacific place 11 theater
p3137
sVmoviename
p3138
Vrace
p3139
sVstarttime
p3140
V10:00 pm
p3141
ssL761L
(dp3142
Vtheater
p3143
Vmesa grand 24
p3144
sVactress
p3145
Vtina fey
p3146
sVdate
p3147
Vfriday
p3148
sVstarttime
p3149
Vnight
p3150
sVtheater_chain
p3151
Vamc theater
p3152
sVmoviename
p3153
Vzootopia
p3154
ssL762L
(dp3155
g3143
g3144
sg3145
g3146
sg3147
g3148
sg3149
g3150
sg3151
Vamc ahwatukee 24
p3156
sg3153
g3154
ssL763L
(dp3157
g3143
g3144
sg3145
g3146
sg3147
g3148
sg3149
g3150
sg3151
V amc mesa grand 24
p3158
sg3153
g3154
ssL764L
(dp3159
g3143
Vmesa grand
p3160
sg3145
g3146
sg3147
g3148
sg3149
g3150
sg3151
g3152
sg3153
g3154
ssL765L
(dp3161
g3143
g3160
sg3145
g3146
sg3147
g3148
sg3149
g3150
sg3151
g3156
sg3153
g3154
ssL766L
(dp3162
Vdate
p3163
Vtonight
p3164
sVcity
p3165
Vseattle
p3166
sVtheater
p3167
Vregal meridian 16
p3168
sVmoviename
p3169
Vthe big short
p3170
sVstarttime
p3171
Vthe next
p3172
ssL767L
(dp3173
g3163
g3164
sg3165
g3166
sg3167
g3168
sg3169
g3170
sg3171
g3172
ssL768L
(dp3174
g3163
g3164
sg3165
g3166
sg3167
g3168
sg3169
g3170
sg3171
V8:45
p3175
ssL769L
(dp3176
g3163
g3164
sg3165
g3166
sg3167
g3168
sg3169
g3170
sg3171
g3175
ssL770L
(dp3177
Vdate
p3178
Vtomorrow
p3179
sVcity
p3180
Vseattle
p3181
sVtheater
p3182
Vregal meridian 16
p3183
sVmoviename
p3184
Vzootopia
p3185
sVstarttime
p3186
V9:10 pm
p3187
ssL771L
(dp3188
Vdate
p3189
Vtonight
p3190
sVcity
p3191
Vsafeco field
p3192
sVtheater
p3193
Vregal meridian 16
p3194
sVmoviename
p3195
Vthe big short
p3196
sVstarttime
p3197
Vthe next showing
p3198
ssL772L
(dp3199
g3189
g3190
sg3191
Vseattle
p3200
sg3193
g3194
sg3195
g3196
sg3197
g3198
ssL773L
(dp3201
g3189
g3190
sg3191
g3192
sg3193
g3194
sg3195
g3196
sg3197
g3198
ssL774L
(dp3202
g3189
g3190
sg3191
g3200
sg3193
g3194
sg3195
g3196
sg3197
g3198
ssL775L
(dp3203
g3189
g3190
sg3191
g3192
sg3193
g3194
sg3195
g3196
sg3197
g3198
ssL776L
(dp3204
Vdate
p3205
Vsunday
p3206
sVcity
p3207
Vbirmingham
p3208
sVtheater
p3209
Vcarmike summit 16
p3210
sVmoviename
p3211
Vdeadpool
p3212
sVstarttime
p3213
Varound 2pm
p3214
ssL777L
(dp3215
g3205
g3206
sg3207
g3208
sg3209
g3210
sg3211
g3212
sg3213
V2:05 pm
p3216
ssL778L
(dp3217
Vdate
p3218
Vweekend
p3219
sVtheater
p3220
Vboyou vista la
p3221
sVmoviename
p3222
Vdeadpool
p3223
sVstarttime
p3224
Vnight
p3225
ssL779L
(dp3226
g3218
Vfriday
p3227
sg3220
g3221
sg3222
g3223
sg3224
g3225
ssL780L
(dp3228
g3218
Vthis weekend
p3229
sg3220
g3221
sg3222
g3223
sg3224
g3225
ssL781L
(dp3230
g3218
Vearlier day
p3231
sg3220
g3221
sg3222
g3223
sg3224
g3225
ssL782L
(dp3232
g3218
Vthursday
p3233
sg3220
g3221
sg3222
g3223
sg3224
g3225
ssL783L
(dp3234
Vdate
p3235
Vfriday
p3236
sVcity
p3237
Vmiami
p3238
sVmoviename
p3239
Vbrothers grimsby
p3240
sVtheater
p3241
Vregal south beach
p3242
sVstarttime
p3243
V8pm
p3244
ssL784L
(dp3245
g3235
g3236
sg3237
g3238
sg3239
g3240
sg3241
Vamc sunset place 24
p3246
sg3243
g3244
ssL785L
(dp3247
g3235
g3236
sg3237
g3238
sg3239
g3240
sg3241
g3242
sg3243
V7:40
p3248
ssL786L
(dp3249
g3235
g3236
sg3237
g3238
sg3239
g3240
sg3241
g3246
sg3243
g3248
ssL787L
(dp3250
g3235
g3236
sg3237
g3238
sg3239
g3240
sg3241
g3242
sg3243
V6:00
p3251
ssL788L
(dp3252
Vdate
p3253
Vtomorrow
p3254
sVcity
p3255
Vseattle
p3256
sVtheater
p3257
Vregal meridian 16
p3258
sVmoviename
p3259
Vbig short
p3260
sVstarttime
p3261
V8:45 pm
p3262
ssL789L
(dp3263
g3253
g3254
sg3255
g3256
sg3257
g3258
sg3259
Vthe big short
p3264
sg3261
g3262
ssL790L
(dp3265
Vcity
p3266
Vseattle
p3267
sVtheater
p3268
Vbellevue lincoln square cinemas
p3269
sVnumberofkids
p3270
V2
sVstarttime
p3271
Vevening
p3272
sVdate
p3273
Vtomorrow night
p3274
sVmoviename
p3275
Vzootopia
p3276
ssL791L
(dp3277
g3266
Vst louis
p3278
sg3268
g3269
sg3270
V2
sg3271
g3272
sg3273
g3274
sg3275
g3276
ssL792L
(dp3279
g3266
Vbellevue
p3280
sg3268
g3269
sg3270
V2
sg3271
g3272
sg3273
g3274
sg3275
g3276
ssL793L
(dp3281
g3266
g3267
sg3268
g3269
sg3270
V2
sg3271
g3272
sg3273
g3274
sg3275
g3276
ssL794L
(dp3282
g3266
g3278
sg3268
g3269
sg3270
V2
sg3271
g3272
sg3273
g3274
sg3275
g3276
ssL795L
(dp3283
Vdate
p3284
Vsaturday
p3285
sVcity
p3286
Vla
p3287
sVtheater
p3288
Vregency norwalk 8
p3289
sVmoviename
p3290
Vthe forest
p3291
sVstarttime
p3292
V7:40pm
p3293
ssL796L
(dp3294
g3284
g3285
sg3286
g3287
sg3288
Vamc la 7
p3295
sg3290
g3291
sg3292
g3293
ssL797L
(dp3296
g3284
g3285
sg3286
g3287
sg3288
Vamc la mirada
p3297
sg3290
g3291
sg3292
g3293
ssL798L
(dp3298
g3284
g3285
sg3286
g3287
sg3288
Vamc la
p3299
sg3290
g3291
sg3292
g3293
ssL799L
(dp3300
g3284
g3285
sg3286
g3287
sg3288
g3289
sg3290
g3291
sg3292
g3293
ssL800L
(dp3301
Vcity
p3302
Vst louis
p3303
sVtheater
p3304
Vwehrenberg ronnies 20 cine and imax
p3305
sVmoviename
p3306
Vhow to be single
p3307
sVstarttime
p3308
V7:20
p3309
ssL801L
(dp3310
g3302
Vsappington
p3311
sg3304
g3305
sg3306
g3307
sg3308
g3309
ssL802L
(dp3312
g3302
g3303
sg3304
g3305
sg3306
g3307
sg3308
g3309
ssL803L
(dp3313
g3302
g3311
sg3304
g3305
sg3306
g3307
sg3308
g3309
ssL804L
(dp3314
g3302
g3303
sg3304
g3305
sg3306
g3307
sg3308
V10:05
p3315
ssL805L
(dp3316
Vcity
p3317
Vseattle
p3318
sVtheater
p3319
Vall
p3320
sVvideo_format
p3321
V2d
p3322
sVstarttime
p3323
Varound 6 pm
p3324
sVdate
p3325
Vthis evening
p3326
sVmoviename
p3327
Vzootopia
p3328
ssL806L
(dp3329
g3317
Vbellevue
p3330
sg3319
g3320
sg3321
g3322
sg3323
g3324
sg3325
g3326
sg3327
g3328
ssL807L
(dp3331
g3317
g3318
sg3319
Vregal meridian 16
p3332
sg3321
g3322
sg3323
g3324
sg3325
g3326
sg3327
g3328
ssL808L
(dp3333
g3317
g3330
sg3319
g3332
sg3321
g3322
sg3323
g3324
sg3325
g3326
sg3327
g3328
ssL809L
(dp3334
g3317
g3318
sg3319
Vbellevue lincoln square cinemas
p3335
sg3321
g3322
sg3323
g3324
sg3325
g3326
sg3327
g3328
ssL810L
(dp3336
Vdate
p3337
Vtomorrow
p3338
sVcity
p3339
Vseattle
p3340
sVtheater
p3341
Vregal meridian 16
p3342
sVmoviename
p3343
Vthe witch
p3344
sVstarttime
p3345
V9:30 pm
p3346
ssL811L
(dp3347
Vcity
p3348
Vseattle
p3349
sVtheater
p3350
Vregal meridian 16
p3351
sVvideo_format
p3352
V3d
p3353
sVstarttime
p3354
V9:10 pm
p3355
sVdate
p3356
Vtomorrow
p3357
sVmoviename
p3358
Vzootopia
p3359
ssL812L
(dp3360
Vdate
p3361
Vtomorrow
p3362
sVcity
p3363
Vchico
p3364
sVtheater
p3365
Vparadise cinema 7
p3366
sVmoviename
p3367
Vlondon has fallen
p3368
sVstarttime
p3369
Vearly afternoon
p3370
ssL813L
(dp3371
g3361
g3362
sg3363
g3364
sg3365
Vtinseltown
p3372
sg3367
g3368
sg3369
g3370
ssL814L
(dp3373
g3361
g3362
sg3363
g3364
sg3365
Vcinemark 14
p3374
sg3367
g3368
sg3369
g3370
ssL815L
(dp3375
g3361
g3362
sg3363
g3364
sg3365
V paradisa cinema 7
p3376
sg3367
g3368
sg3369
g3370
ssL816L
(dp3377
g3361
V3/11
p3378
sg3363
g3364
sg3365
g3366
sg3367
g3368
sg3369
g3370
ssL817L
(dp3379
Vtheater
p3380
Vbeaver creek stadium 12
p3381
sVprice
p3382
Vadult price is 8
p3383
sVmoviename
p3384
V10 cloverfield lane
p3385
sVstarttime
p3386
V1:50
p3387
ssL818L
(dp3388
g3380
g3381
sg3382
V32
p3389
sg3384
g3385
sg3386
g3387
ssL819L
(dp3390
g3380
g3381
sg3382
g3383
sg3384
g3385
sg3386
g3387
ssL820L
(dp3391
g3380
g3381
sg3382
g3389
sg3384
g3385
sg3386
g3387
ssL821L
(dp3392
g3380
g3381
sg3382
g3383
sg3384
g3385
sg3386
V 4:30
p3393
ssL822L
(dp3394
Vcity
p3395
Vseattle
p3396
sVtheater
p3397
Vregal meridian 16
p3398
sVvideo_format
p3399
V3d
p3400
sVstarttime
p3401
Varound 8 pm
p3402
sVdate
p3403
Vtomorrow
p3404
sVmoviename
p3405
Vzootopia
p3406
ssL823L
(dp3407
g3395
g3396
sg3397
Vbellevue lincoln square cinemas
p3408
sg3399
g3400
sg3401
g3402
sg3403
g3404
sg3405
g3406
ssL824L
(dp3409
g3395
g3396
sg3397
Vvarsity theatre
p3410
sg3399
g3400
sg3401
g3402
sg3403
g3404
sg3405
g3406
ssL825L
(dp3411
g3395
g3396
sg3397
g3398
sg3399
Vregular
p3412
sg3401
g3402
sg3403
g3404
sg3405
g3406
ssL826L
(dp3413
g3395
g3396
sg3397
g3408
sg3399
g3412
sg3401
g3402
sg3403
g3404
sg3405
g3406
ssL827L
(dp3414
Vdate
p3415
Vnext saturday
p3416
sVcity
p3417
Vwhittier village stadium cinemas
p3418
sVmoviename
p3419
Vlondon has fallen
p3420
sVstarttime
p3421
Vclosest to noon
p3422
ssL828L
(dp3423
g3415
Vmar 12
p3424
sg3417
g3418
sg3419
g3420
sg3421
g3422
ssL829L
(dp3425
g3415
g3416
sg3417
g3418
sg3419
g3420
sg3421
V1:30pm
p3426
ssL830L
(dp3427
g3415
g3424
sg3417
g3418
sg3419
g3420
sg3421
g3426
ssL831L
(dp3428
Vdate
p3429
Vtomorrow
p3430
sVcity
p3431
Vseattle
p3432
sVtheater
p3433
Vregal meridian 16
p3434
sVmoviename
p3435
Vspotlight
p3436
sVstarttime
p3437
V9:00 pm
p3438
ssL832L
(dp3439
Vdate
p3440
Vtomorrow
p3441
sVcity
p3442
Vevanston
p3443
sVtheater
p3444
VCENTURY 12 EVANSTON/CIN\u2030ARTS 6 AND XD
p3445
sVmoviename
p3446
Vdeadpool
p3447
sVstarttime
p3448
V10:45am
p3449
ssL833L
(dp3450
g3440
g3441
sg3442
g3443
sg3444
g3445
sg3446
g3447
sg3448
g3449
ssL834L
(dp3451
g3440
g3441
sg3442
g3443
sg3444
g3445
sg3446
g3447
sg3448
V12:00pm
p3452
ssL835L
(dp3453
g3440
g3441
sg3442
g3443
sg3444
g3445
sg3446
g3447
sg3448
g3452
ssL836L
(dp3454
g3440
g3441
sg3442
g3443
sg3444
g3445
sg3446
g3447
sg3448
V2:40pm
p3455
ssL837L
(dp3456
Vdate
p3457
Vsaturday
p3458
sVcity
p3459
Vwilmington
p3460
sVtheater
p3461
Vregal mayfaire stadium 16 imax
p3462
sVmoviename
p3463
Vthe perfect match
p3464
sVstarttime
p3465
V8pm
p3466
ssL838L
(dp3467
g3457
g3458
sg3459
g3460
sg3461
g3462
sg3463
g3464
sg3465
g3466
ssL839L
(dp3468
g3457
g3458
sg3459
g3460
sg3461
g3462
sg3463
g3464
sg3465
Vafter dinner
p3469
ssL840L
(dp3470
g3457
g3458
sg3459
g3460
sg3461
g3462
sg3463
g3464
sg3465
g3469
ssL841L
(dp3471
g3457
g3458
sg3459
g3460
sg3461
g3462
sg3463
g3464
sg3465
V8
ssL842L
(dp3472
Vdate
p3473
Vtonight
p3474
sVcity
p3475
Vseattle
p3476
sVtheater
p3477
Vregal lloyd center century 16
p3478
sVmoviename
p3479
Vstar wars the force awakens
p3480
sVstarttime
p3481
Vmidnight
p3482
ssL843L
(dp3483
g3473
g3474
sg3475
Vportland
p3484
sg3477
g3478
sg3479
g3480
sg3481
g3482
ssL844L
(dp3485
g3473
g3474
sg3475
g3476
sg3477
Vregal movies on tv stadium 16
p3486
sg3479
g3480
sg3481
g3482
ssL845L
(dp3487
g3473
g3474
sg3475
g3484
sg3477
g3486
sg3479
g3480
sg3481
g3482
ssL846L
(dp3488
g3473
g3474
sg3475
g3476
sg3477
Vregal lloyd
p3489
sg3479
g3480
sg3481
g3482
ssL847L
(dp3490
Vdate
p3491
Vtomorrow
p3492
sVcity
p3493
Vseattle
p3494
sVtheater
p3495
Vamc lowes oak tree 6
p3496
sVmoviename
p3497
Vrace
p3498
sVstarttime
p3499
V4:50 pm
p3500
ssL848L
(dp3501
Vcity
p3502
Vseattle
p3503
sVtheater
p3504
Vamc pacific place 11 theater
p3505
sVdate
p3506
Vtomorrow
p3507
sVstarttime
p3508
V10:00 pm
p3509
sVtheater_chain
p3510
Vamc pacific place 11
p3511
sVmoviename
p3512
Vrace
p3513
ssL849L
(dp3514
Vdate
p3515
Vthis weekend
p3516
ssL850L
(dp3517
Vdate
p3518
Vtomorrow
p3519
sVcity
p3520
Vseattle
p3521
sVtheater
p3522
Vregal meridian 16
p3523
sVmoviename
p3524
Vthe witch
p3525
sVstarttime
p3526
V9:30 pm
p3527
ssL851L
(dp3528
Vdate
p3529
Vtomorrow
p3530
sVcity
p3531
Vseattle
p3532
sVtheater
p3533
Vregal meridian 16
p3534
sVmoviename
p3535
Vthe witch
p3536
sVstarttime
p3537
V9:30 pm
p3538
ssL852L
(dp3539
Vdate
p3540
Vtomorrow
p3541
sVcity
p3542
Vbirmingham
p3543
sVtheater
p3544
Vcarmike summit 16
p3545
sVmoviename
p3546
Vdeadpool
p3547
sVstarttime
p3548
V2pm
p3549
ssL853L
(dp3550
g3540
g3541
sg3542
g3543
sg3544
g3545
sg3546
g3547
sg3548
V2:20
p3551
ssL854L
(dp3552
Vdate
p3553
V21-mar
p3554
sVcity
p3555
Vseattle
p3556
sVtheater
p3557
Vamc pacific place 11
p3558
sVmoviename
p3559
Vdeadpool
p3560
ssL855L
(dp3561
g3553
g3554
sg3555
Vbellevue
p3562
sg3557
g3558
sg3559
g3560
ssL856L
(dp3563
g3553
g3554
sg3555
g3556
sg3557
Vbellevue lincoln square cinemas
p3564
sg3559
g3560
ssL857L
(dp3565
g3553
g3554
sg3555
g3562
sg3557
g3564
sg3559
g3560
ssL858L
(dp3566
g3553
g3554
sg3555
g3556
sg3557
Vbig picture seattle
p3567
sg3559
g3560
ssL859L
(dp3568
Vdate
p3569
Vthursday
p3570
sVcity
p3571
Vbirmingham
p3572
sVtheater
p3573
Vcarmike summit 16
p3574
sVmoviename
p3575
Vdeadpool
p3576
sVstarttime
p3577
Varound 2pm
p3578
ssL860L
(dp3579
g3569
g3570
sg3571
g3572
sg3573
Vcarmike summit
p3580
sg3575
g3576
sg3577
g3578
ssL861L
(dp3581
g3569
g3570
sg3571
g3572
sg3573
g3574
sg3575
g3576
sg3577
V2:20
p3582
ssL862L
(dp3583
g3569
g3570
sg3571
g3572
sg3573
g3580
sg3575
g3576
sg3577
g3582
ssL863L
(dp3584
g3569
g3570
sg3571
g3572
sg3573
g3574
sg3575
g3576
sg3577
V2:20pm
p3585
ssL864L
(dp3586
Vdate
p3587
Vnext friday
p3588
sVmoviename
p3589
Veddie the eagle
p3590
sVtheater
p3591
Vcentury rowland plaza
p3592
sVstarttime
p3593
Vfrom 4pm to 7pm
p3594
ssL865L
(dp3595
g3587
g3588
sg3589
g3590
sg3591
g3592
sg3593
V4:20pm
p3596
ssL866L
(dp3597
g3587
g3588
sg3589
g3590
sg3591
g3592
sg3593
V6:55pm
p3598
ssL867L
(dp3599
g3587
g3588
sg3589
g3590
sg3591
g3592
sg3593
V4:20
p3600
ssL868L
(dp3601
Vdate
p3602
Vnext sunday
p3603
sVcity
p3604
Vwhittier
p3605
sVtheater
p3606
Vwhittier village stadium cinemas
p3607
sVmoviename
p3608
Vlondon has fallen
p3609
sVstarttime
p3610
Vbetween noon and 4pm
p3611
ssL869L
(dp3612
g3602
g3603
sg3604
g3605
sg3606
g3607
sg3608
g3609
sg3610
V1:30pm
p3613
ssL870L
(dp3614
g3602
V3/13
p3615
sg3604
g3605
sg3606
g3607
sg3608
g3609
sg3610
g3611
ssL871L
(dp3616
g3602
g3615
sg3604
g3605
sg3606
g3607
sg3608
g3609
sg3610
g3613
ssL872L
(dp3617
Vdate
p3618
Vtomorrow
p3619
sVcity
p3620
Vlansing
p3621
sVtheater
p3622
Vncg eastwood cinemas
p3623
sVmoviename
p3624
Vzootopia
p3625
sVstarttime
p3626
V6pm
p3627
ssL873L
(dp3628
g3618
g3619
sg3620
g3621
sg3622
Vregal cinemas
p3629
sg3624
g3625
sg3626
g3627
ssL874L
(dp3630
g3618
g3619
sg3620
g3621
sg3622
Vcinema lansing
p3631
sg3624
g3625
sg3626
g3627
ssL875L
(dp3632
g3618
g3619
sg3620
g3621
sg3622
g3623
sg3624
g3625
sg3626
g3627
ssL876L
(dp3633
g3618
g3619
sg3620
g3621
sg3622
g3629
sg3624
g3625
sg3626
g3627
ssL877L
(dp3634
Vtheater
p3635
Vbig picture
p3636
ssL878L
(dp3637
g3635
g3636
ssL879L
(dp3638
g3635
Vcinerama
p3639
ssL880L
(dp3640
g3635
g3639
ssL881L
(dp3641
g3635
Vcentral cinema
p3642
ssL882L
(dp3643
Vdate
p3644
Vtomorrow
p3645
sVcity
p3646
Vseattle
p3647
sVtheater
p3648
Vamc elmwood palace 20
p3649
sVmoviename
p3650
Vzootopia
p3651
sVstarttime
p3652
V5pm
p3653
ssL883L
(dp3654
g3644
g3645
sg3646
g3647
sg3648
g3649
sg3650
g3651
sg3652
V5:00 pm
p3655
ssL884L
(dp3656
g3644
g3645
sg3646
g3647
sg3648
g3649
sg3650
g3651
sg3652
g3653
ssL885L
(dp3657
g3644
g3645
sg3646
g3647
sg3648
g3649
sg3650
g3651
sg3652
g3655
ssL886L
(dp3658
Vdate
p3659
Vthis weekend
p3660
sVcity
p3661
Vbayou vista
p3662
sVtheater
p3663
Vfairview cinema
p3664
sVmoviename
p3665
Vdeadpool
p3666
sVstarttime
p3667
Vnight
p3668
ssL887L
(dp3669
g3659
g3660
sg3661
g3662
sg3663
g3664
sg3665
g3666
sg3667
Vanytime
p3670
ssL888L
(dp3671
g3659
g3660
sg3661
g3662
sg3663
g3664
sg3665
g3666
sg3667
V7pm
p3672
ssL889L
(dp3673
g3659
Vfriday
p3674
sg3661
g3662
sg3663
g3664
sg3665
g3666
sg3667
g3668
ssL890L
(dp3675
g3659
g3674
sg3661
g3662
sg3663
g3664
sg3665
g3666
sg3667
g3670
ssL891L
(dp3676
Vdate
p3677
Vfriday march 11
p3678
sVcity
p3679
Vmanchester stadium 16
p3680
sVtheater
p3681
Vshields ave
p3682
sVmoviename
p3683
Vzootopia
p3684
sVstarttime
p3685
Vonce or twice every hour
p3686
ssL892L
(dp3687
g3677
g3678
sg3679
g3680
sg3681
Vmaya fresno 16
p3688
sg3683
g3684
sg3685
g3686
ssL893L
(dp3689
g3677
g3678
sg3679
g3680
sg3681
Vcampus pointe dr
p3690
sg3683
g3684
sg3685
g3686
ssL894L
(dp3691
g3677
g3678
sg3679
g3680
sg3681
g3682
sg3683
g3684
sg3685
g3686
ssL895L
(dp3692
g3677
g3678
sg3679
g3680
sg3681
g3688
sg3683
g3684
sg3685
g3686
ssL896L
(dp3693
Vcity
p3694
Vseattle
p3695
sVtheater
p3696
Vpacific place 11
p3697
sVdate
p3698
Vtonight
p3699
sVstarttime
p3700
V9
sVtheater_chain
p3701
Vamc
p3702
sVmoviename
p3703
Vhow to be single
p3704
ssL897L
(dp3705
g3694
g3695
sg3696
g3697
sg3698
g3699
sg3700
V9
sg3701
g3702
sg3703
g3704
ssL898L
(dp3706
g3694
g3695
sg3696
g3697
sg3698
g3699
sg3700
V9
sg3701
g3702
sg3703
g3704
ssL899L
(dp3707
g3694
g3695
sg3696
g3697
sg3698
g3699
sg3700
V9
sg3701
g3702
sg3703
g3704
ssL900L
(dp3708
g3694
g3695
sg3696
g3697
sg3698
g3699
sg3700
V9
sg3701
g3702
sg3703
g3704
ssL901L
(dp3709
Vdate
p3710
Vthursday
p3711
sVcity
p3712
Vportland
p3713
sVtheater
p3714
VRegal Pioneer Place Stadium
p3715
sVmoviename
p3716
V10 cloverfield lane
p3717
sVstarttime
p3718
V10 pm#some time close to that
p3719
ssL902L
(dp3720
g3710
g3711
sg3712
g3713
sg3714
VRegal Lloyd Center 10
p3721
sg3716
g3717
sg3718
g3719
ssL903L
(dp3722
g3710
g3711
sg3712
g3713
sg3714
VBagdad Theatre
p3723
sg3716
g3717
sg3718
g3719
ssL904L
(dp3724
g3710
g3711
sg3712
g3713
sg3714
Vregal pioneer place stadium
p3725
sg3716
g3717
sg3718
g3719
ssL905L
(dp3726
g3710
g3711
sg3712
g3713
sg3714
g3715
sg3716
g3717
sg3718
V9:50pm
p3727
ssL906L
(dp3728
Vdate
p3729
Vthis week
p3730
sVcity
p3731
Vhouma
p3732
sVtheater
p3733
Vamc houma palace 10
p3734
sVmoviename
p3735
VWhiskey Tango Foxtrot
p3736
sVstarttime
p3737
Vnight
p3738
ssL907L
(dp3739
g3729
g3730
sg3731
VHouma
p3740
sg3733
g3734
sg3735
g3736
sg3737
g3738
ssL908L
(dp3741
g3729
g3730
sg3731
g3732
sg3733
g3734
sg3735
g3736
sg3737
g3738
ssL909L
(dp3742
g3729
g3730
sg3731
g3740
sg3733
g3734
sg3735
g3736
sg3737
g3738
ssL910L
(dp3743
g3729
g3730
sg3731
g3732
sg3733
g3734
sg3735
g3736
sg3737
g3738
ssL911L
(dp3744
Vdate
p3745
Vthis weekend
p3746
sVcity
p3747
Vtulare
p3748
sVtheater
p3749
Vregal visalia stadium 10
p3750
sVmoviename
p3751
V10 cloverfield lane
p3752
sVstarttime
p3753
V11:20am
p3754
ssL912L
(dp3755
g3745
g3746
sg3747
g3748
sg3749
g3750
sg3751
g3752
sg3753
V2:00pm
p3756
ssL913L
(dp3757
g3745
g3746
sg3747
g3748
sg3749
g3750
sg3751
g3752
sg3753
V4:40
p3758
ssL914L
(dp3759
g3745
g3746
sg3747
g3748
sg3749
g3750
sg3751
g3752
sg3753
V7:20
p3760
ssL915L
(dp3761
g3745
g3746
sg3747
g3748
sg3749
g3750
sg3751
g3752
sg3753
V10:05
p3762
ssL916L
(dp3763
Vdate
p3764
Vtomorrow
p3765
sVcity
p3766
Vsparta
p3767
sVtheater
p3768
Vwehrenberg o'fallon 15 cine
p3769
sVmoviename
p3770
Vzoolander 2
p3771
sVstarttime
p3772
Vafternoon
p3773
ssL917L
(dp3774
g3764
g3765
sg3766
Vshiloh
p3775
sg3768
g3769
sg3770
g3771
sg3772
g3773
ssL918L
(dp3776
g3764
g3765
sg3766
Vbelleville
p3777
sg3768
g3769
sg3770
g3771
sg3772
g3773
ssL919L
(dp3778
g3764
g3765
sg3766
Vo'fallon
p3779
sg3768
g3769
sg3770
g3771
sg3772
g3773
ssL920L
(dp3780
g3764
g3765
sg3766
Vfairview heights
p3781
sg3768
g3769
sg3770
g3771
sg3772
g3773
ssL921L
(dp3782
Vtheater
p3783
Vroyal oak emagine theater
p3784
sVmoviename
p3785
Vdeadpool
p3786
sVstarttime
p3787
Vbetween 8-10 pm
p3788
ssL922L
(dp3789
Vdate
p3790
Vtomorrow
p3791
sVcity
p3792
Vseattle
p3793
sVtheater
p3794
Vregal meridian 16
p3795
sVmoviename
p3796
Vzoolander 2
p3797
sVstarttime
p3798
V9:25 pm
p3799
ssL923L
(dp3800
Vdate
p3801
Vtoday
p3802
sVcity
p3803
Vseattle
p3804
sVtheater
p3805
VBig Picture Sundance Cinemas
p3806
sVmoviename
p3807
Vdeadpool
p3808
sVstarttime
p3809
V6pm
p3810
ssL924L
(dp3811
g3801
g3802
sg3803
g3804
sg3805
VCentral Cinema
p3812
sg3807
g3808
sg3809
g3810
ssL925L
(dp3813
g3801
g3802
sg3803
g3804
sg3805
Vbig picture
p3814
sg3807
g3808
sg3809
g3810
ssL926L
(dp3815
g3801
g3802
sg3803
g3804
sg3805
g3806
sg3807
g3808
sg3809
V8:30pm
p3816
ssL927L
(dp3817
g3801
g3802
sg3803
g3804
sg3805
g3812
sg3807
g3808
sg3809
g3816
ssL928L
(dp3818
Vdate
p3819
Vtomorrow
p3820
sVcity
p3821
Vseattle
p3822
sVtheater
p3823
Vamc lowes oak tree 6
p3824
sVstarttime
p3825
V4:50 pm
p3826
ssL929L
(dp3827
Vdate
p3828
V3/10
p3829
sVtheater
p3830
Vsouthpoint casino
p3831
sVmoviename
p3832
Vthe other side of the door
p3833
sVstarttime
p3834
V12:05pm
p3835
sVcity
p3836
Vlas vegas
p3837
ssL930L
(dp3838
g3828
g3829
sg3830
g3831
sg3832
g3833
sg3834
V2:40pm
p3839
sg3836
g3837
ssL931L
(dp3840
g3828
g3829
sg3830
g3831
sg3832
g3833
sg3834
V5:20pm
p3841
sg3836
g3837
ssL932L
(dp3842
g3828
g3829
sg3830
g3831
sg3832
g3833
sg3834
V8:05pm
p3843
sg3836
g3837
ssL933L
(dp3844
g3828
g3829
sg3830
g3831
sg3832
g3833
sg3834
V10:35pm
p3845
sg3836
g3837
ssL934L
(dp3846
Vcity
p3847
Vchicago
p3848
sVmoviename
p3849
Vthe other side of the door
p3850
ssL935L
(dp3851
g3847
g3848
sg3849
Vthe witch
p3852
ssL936L
(dp3853
Vdate
p3854
Vtomorrow
p3855
sVcity
p3856
Vseattle
p3857
sVtheater
p3858
Vregal meridian 16
p3859
sVmoviename
p3860
Vzootopia
p3861
sVstarttime
p3862
Varound 6pm
p3863
ssL937L
(dp3864
g3854
g3855
sg3856
g3857
sg3858
Vregal thornton place
p3865
sg3860
g3861
sg3862
g3863
ssL938L
(dp3866
g3854
g3855
sg3856
g3857
sg3858
g3859
sg3860
g3861
sg3862
V5:20
p3867
ssL939L
(dp3868
g3854
g3855
sg3856
g3857
sg3858
g3865
sg3860
g3861
sg3862
g3867
ssL940L
(dp3869
g3854
g3855
sg3856
g3857
sg3858
g3859
sg3860
g3861
sg3862
V6:30 pm
p3870
ssL941L
(dp3871
Vtheater_chain
p3872
Vamc showplace carbondale
p3873
sVcity
p3874
Vdu Quoin
p3875
sVmoviename
p3876
Vstar wars
p3877
sVstarttime
p3878
Vafter 6pm
p3879
sVdate
p3880
Vfriday11th
p3881
ssL942L
(dp3882
g3872
g3873
sg3874
Vcarbondale
p3883
sg3876
g3877
sg3878
g3879
sg3880
g3881
ssL943L
(dp3884
g3872
g3873
sg3874
g3875
sg3876
g3877
sg3878
g3879
sg3880
g3881
ssL944L
(dp3885
g3872
g3873
sg3874
g3883
sg3876
g3877
sg3878
g3879
sg3880
g3881
ssL945L
(dp3886
g3872
g3873
sg3874
g3875
sg3876
g3877
sg3878
g3879
sg3880
g3881
ssL946L
(dp3887
Vdate
p3888
VFriday the 10th
p3889
sVcity
p3890
Vseattle
p3891
sVmoviename
p3892
Vgods egypt
p3893
sVtheater
p3894
Vcinemark lincoln square cinemas
p3895
sVstarttime
p3896
V7:15pm
p3897
ssL947L
(dp3898
g3888
g3889
sg3890
g3891
sg3892
Vgods of egypt
p3899
sg3894
g3895
sg3896
g3897
ssL948L
(dp3900
g3888
g3889
sg3890
g3891
sg3892
g3893
sg3894
g3895
sg3896
V7:15
p3901
ssL949L
(dp3902
g3888
g3889
sg3890
g3891
sg3892
g3899
sg3894
g3895
sg3896
g3901
ssL950L
(dp3903
Vdate
p3904
Vtomorrow
p3905
sVcity
p3906
Vseattle
p3907
sVtheater
p3908
Vregal meridian 16 theater
p3909
sVmoviename
p3910
Vhail caesar
p3911
sVstarttime
p3912
V8:45 pm
p3913
ssL951L
(dp3914
Vdate
p3915
Vtomorrow
p3916
sVcity
p3917
Vseattle
p3918
sVmoviename
p3919
Vzootopia
p3920
sVstarttime
p3921
Vnight
p3922
ssL952L
(dp3923
Vdate
p3924
Vtomorrow
p3925
sVcity
p3926
Vseattle
p3927
sVtheater
p3928
Vamc pacific place 11 theater
p3929
sVmoviename
p3930
Vrace
p3931
sVstarttime
p3932
V10:00 pm
p3933
ssL953L
(dp3934
Vdate
p3935
Vthis saturday
p3936
sVmoviename
p3937
Vzootopia
p3938
sVtheater
p3939
Vamc river east 21
p3940
sVstarttime
p3941
Vnight
p3942
sVvideo_format
p3943
V2d
p3944
ssL954L
(dp3945
g3935
Vtomorrow
p3946
sg3937
g3938
sg3939
g3940
sg3941
g3942
sg3943
g3944
ssL955L
(dp3947
g3935
g3936
sg3937
g3938
sg3939
g3940
sg3941
V6pm
p3948
sg3943
g3944
ssL956L
(dp3949
g3935
g3946
sg3937
g3938
sg3939
g3940
sg3941
g3948
sg3943
g3944
ssL957L
(dp3950
g3935
g3936
sg3937
g3938
sg3939
g3940
sg3941
V9:01pm
p3951
sg3943
g3944
ssL958L
(dp3952
Vcity
p3953
Vseattle
p3954
sVtheater
p3955
Vamc pacific place 11 theater
p3956
sVdate
p3957
Vtomorrow
p3958
sVstarttime
p3959
V10:00 pm
p3960
sVtheater_chain
p3961
Vamc pacific place 11
p3962
sVmoviename
p3963
Vrace
p3964
ssL959L
(dp3965
Vdate
p3966
Vtomorrow
p3967
sVcity
p3968
Vseattle
p3969
sVtheater
p3970
Vregal meridian 16
p3971
sVmoviename
p3972
Vlondon has fallen
p3973
sVstarttime
p3974
V9:20 pm
p3975
ssL960L
(dp3976
g3966
g3967
sg3968
g3969
sg3970
g3971
sg3972
g3973
sg3974
g3975
ssL961L
(dp3977
Vcity
p3978
Vseattle
p3979
ssL962L
(dp3980
g3978
g3979
ssL963L
(dp3981
Vcity
p3982
Vmiami
p3983
sVtheater
p3984
Vcinpolis coconut grove
p3985
sVvideo_format
p3986
VIMAX
p3987
sVstarttime
p3988
Varound noon
p3989
sVdate
p3990
Vtomorrow
p3991
sVmoviename
p3992
Vgods of egypt
p3993
ssL964L
(dp3994
g3982
g3983
sg3984
VCOBB DOLPHIN 19 AND IMAX
p3995
sg3986
g3987
sg3988
g3989
sg3990
g3991
sg3992
g3993
ssL965L
(dp3996
g3982
g3983
sg3984
Vcinepolis coconut grove
p3997
sg3986
g3987
sg3988
g3989
sg3990
g3991
sg3992
g3993
ssL966L
(dp3998
g3982
g3983
sg3984
Vcinepolis
p3999
sg3986
g3987
sg3988
g3989
sg3990
g3991
sg3992
g3993
ssL967L
(dp4000
g3982
g3983
sg3984
g3985
sg3986
g3987
sg3988
g3989
sg3990
g3991
sg3992
g3993
ssL968L
(dp4001
Vcity
p4002
Vseattle
p4003
sVtheater
p4004
Vamc southcenter 16
p4005
sVdate
p4006
Vthis weekend
p4007
sVstarttime
p4008
V9:30 pm
p4009
sVtheater_chain
p4010
Vregency
p4011
sVmoviename
p4012
Vlondon has fallen
p4013
ssL969L
(dp4014
g4002
g4003
sg4004
g4005
sg4006
g4007
sg4008
g4009
sg4010
Vamc
p4015
sg4012
g4013
ssL970L
(dp4016
g4002
g4003
sg4004
g4005
sg4006
Vany day this week
p4017
sg4008
g4009
sg4010
g4011
sg4012
g4013
ssL971L
(dp4018
g4002
g4003
sg4004
g4005
sg4006
g4017
sg4008
g4009
sg4010
g4015
sg4012
g4013
ssL972L
(dp4019
g4002
g4003
sg4004
g4005
sg4006
Vwednesday
p4020
sg4008
g4009
sg4010
g4011
sg4012
g4013
ssL973L
(dp4021
Vdate
p4022
Vtomorrow
p4023
sVcity
p4024
Vseattle
p4025
sVtheater
p4026
Vamc lowes oak tree 6
p4027
sVmoviename
p4028
Vhail caesar
p4029
sVstarttime
p4030
V7:15 pm
p4031
ssL974L
(dp4032
Vdate
p4033
Vtomorrow
p4034
sVcity
p4035
Vseattle
p4036
sVtheater
p4037
Vamc lowes oak tree
p4038
sVmoviename
p4039
Vtriple 9
p4040
sVstarttime
p4041
V7:10 pm
p4042
ssL975L
(dp4043
Vdate
p4044
Vtuesday
p4045
sVcity
p4046
Vcarbondale
p4047
sVtheater
p4048
Vamc showplace carbondale 8
p4049
sVmoviename
p4050
Vthe witch
p4051
sVstarttime
p4052
Vright now
p4053
ssL976L
(dp4054
g4044
VTuesday
p4055
sg4046
g4047
sg4048
g4049
sg4050
g4051
sg4052
g4053
ssL977L
(dp4056
g4044
g4045
sg4046
g4047
sg4048
g4049
sg4050
g4051
sg4052
Vnight
p4057
ssL978L
(dp4058
g4044
g4055
sg4046
g4047
sg4048
g4049
sg4050
g4051
sg4052
g4057
ssL979L
(dp4059
g4044
g4045
sg4046
g4047
sg4048
g4049
sg4050
g4051
sg4052
Vanytime after 7pm
p4060
ssL980L
(dp4061
Vcity
p4062
Vseattle
p4063
sVtheater
p4064
Vregal meridian 16
p4065
sVnumberofkids
p4066
Vtwo
p4067
sVdate
p4068
Vtonight
p4069
sVstarttime
p4070
V6:30pm
p4071
sVtheater_chain
p4072
Vregal meridian
p4073
sVmoviename
p4074
Vzootopia
p4075
ssL981L
(dp4076
g4062
Vbellevue
p4077
sg4064
g4065
sg4066
g4067
sg4068
g4069
sg4070
g4071
sg4072
g4073
sg4074
g4075
ssL982L
(dp4078
g4062
g4063
sg4064
Vbellevue lincoln square cinemas
p4079
sg4066
g4067
sg4068
g4069
sg4070
g4071
sg4072
g4073
sg4074
g4075
ssL983L
(dp4080
g4062
g4077
sg4064
g4079
sg4066
g4067
sg4068
g4069
sg4070
g4071
sg4072
g4073
sg4074
g4075
ssL984L
(dp4081
g4062
g4063
sg4064
Vregal meridian
p4082
sg4066
g4067
sg4068
g4069
sg4070
g4071
sg4072
g4073
sg4074
g4075
ssL985L
(dp4083
Vdate
p4084
Vtomrrow
p4085
sVcity
p4086
Vlas vegas
p4087
sVtheater
p4088
VcCENTURY 16 SOUTH POINT AND XD
p4089
sVmoviename
p4090
Vzootopia
p4091
sVstarttime
p4092
V11:10am
p4093
ssL986L
(dp4094
g4084
g4085
sg4086
g4087
sg4088
VLas Vegas NV 89183
p4095
sg4090
g4091
sg4092
g4093
ssL987L
(dp4096
g4084
g4085
sg4086
g4087
sg4088
VCentury 16 South Point
p4097
sg4090
g4091
sg4092
g4093
ssL988L
(dp4098
g4084
g4085
sg4086
g4087
sg4088
g4089
sg4090
g4091
sg4092
V1:55pm
p4099
ssL989L
(dp4100
g4084
g4085
sg4086
g4087
sg4088
g4095
sg4090
g4091
sg4092
g4099
ssL990L
(dp4101
Vdate
p4102
Vtomorrow
p4103
sVcity
p4104
Vseattle
p4105
sVtheater
p4106
Vamc pacific place 11 theater
p4107
sVmoviename
p4108
Vdeadpool
p4109
sVstarttime
p4110
V9:00 pm
p4111
ss.