(dp1
I0
(dp2
S'date'
p3
S'this weekend'
p4
sS'city'
p5
S'London'
p6
sS'pricerange'
p7
Vdontcare
p8
sS'food'
p9
Vkorean
p10
sS'addr'
p11
V591 Memorial Dr, Chicopee MA 1020
p12
ssI1
(dp13
g3
S'tomorrow night'
p14
sg5
S'Paris'
p15
sg7
Vexpensive
p16
sg9
Vbritish
p17
sg11
V66-4 Parkhurst Rd, Chelmsford MA 1824
p18
ssI2
(dp19
g3
Vtonight
p20
sg5
S'Tokyo'
p21
sg7
Vdontcare
p22
sg9
Vjapanese
p23
sg11
V137 Teaticket Hwy, East Falmouth MA 2536
p24
ssI3
(dp25
g3
g4
sg5
VLisbon
p26
sg7
S'expensive'
p27
sg9
Vmodern european
p28
sg11
V250 Hartford Avenue, Bellingham MA 2019
p29
ssI4
(dp30
g3
Vtoday
p31
sg5
VMumbai
p32
sg7
g27
sg9
Vchinese
p33
sg11
V21 Worcester Rd, Framingham MA 1701
p34
ssI5
(dp35
g3
S'today'
p36
sg5
VTokyo
p37
sg7
S'moderate'
p38
sg9
Vchinese
p39
sg11
g18
ssI6
(dp40
g3
S'sunday'
p41
sg5
VNew York
p42
sg7
g27
sg9
Vinternational
p43
sg11
g18
ssI7
(dp44
g3
Vtonight
p45
sg5
VParis
p46
sg7
S'dontcare'
p47
sg9
Vitalian
p48
sg11
g12
ssI8
(dp49
g3
Vtoday
p50
sg5
VTokyo
p51
sg7
Vexpensive
p52
sg9
S'european'
p53
sg11
V30 Memorial Drive, Avon MA 2322
p54
ssI9
(dp55
g3
g41
sg5
VParis
p56
sg7
Vmoderate
p57
sg9
S'thai'
p58
sg11
g54
ssI10
(dp59
g3
Vtonight
p60
sg5
VParis
p61
sg7
Vmoderate
p62
sg9
S'modern european'
p63
sg11
g12
ssI11
(dp64
g3
S'tomorrow'
p65
sg5
VTokyo
p66
sg7
Vexpensive
p67
sg9
S'indian'
p68
sg11
V55 Brooksby Village Way, Danvers MA 1923
p69
ssI12
(dp70
g3
g14
sg5
g15
sg7
Vdontcare
p71
sg9
Vkorean
p72
sg11
V374 William S Canning Blvd, Fall River MA 2721
p73
ssI13
(dp74
g3
g65
sg5
S'Lisbon'
p75
sg7
Vexpensive
p76
sg9
Vturkish
p77
sg11
g24
ssI14
(dp78
g3
Vtomorrow
p79
sg5
VMumbai
p80
sg7
g27
sg9
Vchinese
p81
sg11
g73
ssI15
(dp82
g3
g41
sg5
VMumbai
p83
sg7
Vcheap
p84
sg9
S'north american'
p85
sg11
g18
ssI16
(dp86
g3
Vtomorrow
p87
sg5
S'Mumbai'
p88
sg7
Vmoderate
p89
sg9
Vgastropub
p90
sg11
g29
ssI17
(dp91
g3
Vtoday
p92
sg5
g75
sg7
Vdontcare
p93
sg9
Vvietnamese
p94
sg11
g29
ssI18
(dp95
g3
Vtomorrow night
p96
sg5
g15
sg7
Vcheap
p97
sg9
Vitalian
p98
sg11
V700 Oak Street, Brockton MA 2301
p99
ssI19
(dp100
g3
Vtonight
p101
sg5
VMumbai
p102
sg7
Vmoderate
p103
sg9
S'turkish'
p104
sg11
g73
ssI20
(dp105
g3
Vtomorrow night
p106
sg5
VParis
p107
sg7
Vcheap
p108
sg9
S'italian'
p109
sg11
V777 Brockton Avenue, Abington MA 2351
p110
ssI21
(dp111
g3
g14
sg5
VMumbai
p112
sg7
Vmoderate
p113
sg9
S'vietnamese'
p114
sg11
g24
ssI22
(dp115
g3
g4
sg5
VNew York
p116
sg7
g38
sg9
Vturkish
p117
sg11
g110
ssI23
(dp118
g3
g41
sg5
VParis
p119
sg7
g38
sg9
Vvietnamese
p120
sg11
g99
ssI24
(dp121
g3
g36
sg5
VTokyo
p122
sg7
Vcheap
p123
sg9
g85
sg11
g18
ssI25
(dp124
g3
Vtonight
p125
sg5
VLondon
p126
sg7
Vmoderate
p127
sg9
S'chinese'
p128
sg11
g29
ssI26
(dp129
g3
g14
sg5
VTokyo
p130
sg7
g38
sg9
Vitalian
p131
sg11
g18
ssI27
(dp132
g3
g14
sg5
VLondon
p133
sg7
Vmoderate
p134
sg9
S'korean'
p135
sg11
g29
ssI28
(dp136
g3
g65
sg5
g15
sg7
Vcheap
p137
sg9
Veuropean
p138
sg11
g34
ssI29
(dp139
g3
g36
sg5
VTokyo
p140
sg7
Vmoderate
p141
sg9
S'african'
p142
sg11
g69
ssI30
(dp143
g3
g41
sg5
VMumbai
p144
sg7
Vcheap
p145
sg9
S'lebanese'
p146
sg11
g99
ssI31
(dp147
g3
Vtomorrow night
p148
sg5
VTokyo
p149
sg7
Vmoderate
p150
sg9
g58
sg11
V42 Fairhaven Commons Way, Fairhaven MA 2719
p151
ssI32
(dp152
g3
g65
sg5
VMumbai
p153
sg7
Vmoderate
p154
sg9
S'international'
p155
sg11
g99
ssI33
(dp156
g3
g65
sg5
VLondon
p157
sg7
Vcheap
p158
sg9
g135
sg11
g18
ssI34
(dp159
g3
Vtoday
p160
sg5
VMumbai
p161
sg7
Vmoderate
p162
sg9
g155
sg11
g69
ssI35
(dp163
g3
Vtonight
p164
sg5
VLisbon
p165
sg7
g47
sg9
Veuropean
p166
sg11
g12
ssI36
(dp167
g3
g36
sg5
VMumbai
p168
sg7
Vmoderate
p169
sg9
g109
sg11
g18
ssI37
(dp170
g3
g41
sg5
g88
sg7
Vdontcare
p171
sg9
Vmexican
p172
sg11
g54
ssI38
(dp173
g3
Vtonight
p174
sg5
VTokyo
p175
sg7
Vexpensive
p176
sg9
g114
sg11
g34
ssI39
(dp177
g3
Vtomorrow night
p178
sg5
VLisbon
p179
sg7
S'cheap'
p180
sg9
Vspanish
p181
sg11
g34
ssI40
(dp182
g3
Vtomorrow
p183
sg5
S'New York'
p184
sg7
Vdontcare
p185
sg9
Vportuguese
p186
sg11
g69
ssI41
(dp187
g3
g36
sg5
g75
sg7
Vmoderate
p188
sg9
Vchinese
p189
sg11
g99
ssI42
(dp190
g3
g41
sg5
VLondon
p191
sg7
g38
sg9
Vindian
p192
sg11
g151
ssI43
(dp193
g3
g41
sg5
VTokyo
p194
sg7
Vmoderate
p195
sg9
S'japanese'
p196
sg11
g99
ssI44
(dp197
g3
g65
sg5
VLondon
p198
sg7
Vexpensive
p199
sg9
S'seafood'
p200
sg11
g54
ssI45
(dp201
g3
Vtonight
p202
sg5
g15
sg7
Vcheap
p203
sg9
Vitalian
p204
sg11
g18
ssI46
(dp205
g3
g4
sg5
VMumbai
p206
sg7
g180
sg9
Vindian
p207
sg11
g54
ssI47
(dp208
g3
Vtomorrow night
p209
sg5
g184
sg7
Vmoderate
p210
sg9
Vasian oriental
p211
sg11
g110
ssI48
(dp212
g3
g41
sg5
g15
sg7
Vexpensive
p213
sg9
Vmodern european
p214
sg11
g12
ssI49
(dp215
g3
g36
sg5
VTokyo
p216
sg7
g38
sg9
Vmodern european
p217
sg11
g29
ssI50
(dp218
g3
Vtoday
p219
sg5
VParis
p220
sg7
g180
sg9
Vitalian
p221
sg11
g73
ssI51
(dp222
g3
g36
sg5
VTokyo
p223
sg7
Vcheap
p224
sg9
g85
sg11
g99
ssI52
(dp225
g3
Vtomorrow
p226
sg5
g88
sg7
Vcheap
p227
sg9
Vportuguese
p228
sg11
g12
ssI53
(dp229
g3
g36
sg5
VMumbai
p230
sg7
Vcheap
p231
sg9
S'spanish'
p232
sg11
g18
ssI54
(dp233
g3
Vtonight
p234
sg5
VNew York
p235
sg7
g47
sg9
Vthai
p236
sg11
g73
ssI55
(dp237
g3
g36
sg5
g21
sg7
Vcheap
p238
sg9
Vvietnamese
p239
sg11
g34
ssI56
(dp240
g3
g65
sg5
VLisbon
p241
sg7
g180
sg9
Vkorean
p242
sg11
g34
ssI57
(dp243
g3
g41
sg5
VMumbai
p244
sg7
Vmoderate
p245
sg9
S'mexican'
p246
sg11
g73
ssI58
(dp247
g3
g4
sg5
VTokyo
p248
sg7
Vexpensive
p249
sg9
g196
sg11
g110
ssI59
(dp250
g3
Vtomorrow
p251
sg5
VLondon
p252
sg7
Vcheap
p253
sg9
g68
sg11
g69
ssI60
(dp254
g3
g41
sg5
VLondon
p255
sg7
Vmoderate
p256
sg9
g63
sg11
g99
ssI61
(dp257
g3
Vtonight
p258
sg5
VLondon
p259
sg7
Vmoderate
p260
sg9
g146
sg11
g110
ssI62
(dp261
g3
g14
sg5
g15
sg7
Vdontcare
p262
sg9
Vthai
p263
sg11
g18
ssI63
(dp264
g3
g4
sg5
VLondon
p265
sg7
g27
sg9
Vchinese
p266
sg11
g69
ssI64
(dp267
g3
g65
sg5
g15
sg7
Vexpensive
p268
sg9
Vkorean
p269
sg11
g69
ssI65
(dp270
g3
g36
sg5
VLondon
p271
sg7
Vexpensive
p272
sg9
g135
sg11
g12
ssI66
(dp273
g3
g4
sg5
g75
sg7
Vmoderate
p274
sg9
Vasian oriental
p275
sg11
g34
ssI67
(dp276
g3
Vtomorrow
p277
sg5
g15
sg7
Vdontcare
p278
sg9
Vportuguese
p279
sg11
g12
ssI68
(dp280
g3
Vtonight
p281
sg5
VLondon
p282
sg7
g27
sg9
Vchinese
p283
sg11
g69
ssI69
(dp284
g3
Vtomorrow night
p285
sg5
g15
sg7
Vexpensive
p286
sg9
Vitalian
p287
sg11
g12
ssI70
(dp288
g3
g65
sg5
VTokyo
p289
sg7
g38
sg9
Vitalian
p290
sg11
g99
ssI71
(dp291
g3
g65
sg5
g15
sg7
Vcheap
p292
sg9
Vportuguese
p293
sg11
g12
ssI72
(dp294
g3
g65
sg5
VLondon
p295
sg7
Vcheap
p296
sg9
g58
sg11
g73
ssI73
(dp297
g3
Vtomorrow night
p298
sg5
VParis
p299
sg7
g38
sg9
Vvietnamese
p300
sg11
g34
ssI74
(dp301
g3
Vtomorrow
p302
sg5
g15
sg7
Vdontcare
p303
sg9
Vvietnamese
p304
sg11
g151
ssI75
(dp305
g3
Vtonight
p306
sg5
VTokyo
p307
sg7
g27
sg9
Vportuguese
p308
sg11
g34
ssI76
(dp309
g3
g65
sg5
g6
sg7
Vexpensive
p310
sg9
Veuropean
p311
sg11
g54
ssI77
(dp312
g3
Vtomorrow night
p313
sg5
VMumbai
p314
sg7
Vcheap
p315
sg9
S'gastropub'
p316
sg11
g151
ssI78
(dp317
g3
Vtoday
p318
sg5
VMumbai
p319
sg7
Vmoderate
p320
sg9
S'french'
p321
sg11
g69
ssI79
(dp322
g3
Vtoday
p323
sg5
VLisbon
p324
sg7
g27
sg9
Vmediterranean
p325
sg11
g34
ssI80
(dp326
g3
Vtoday
p327
sg5
VMumbai
p328
sg7
Vcheap
p329
sg9
S'asian oriental'
p330
sg11
g29
ssI81
(dp331
g3
g4
sg5
VLisbon
p332
sg7
g38
sg9
Vportuguese
p333
sg11
g18
ssI82
(dp334
g3
g14
sg5
VLondon
p335
sg7
Vexpensive
p336
sg9
g53
sg11
g29
ssI83
(dp337
g3
g41
sg5
g75
sg7
Vexpensive
p338
sg9
Vasian oriental
p339
sg11
g110
ssI84
(dp340
g3
Vtomorrow night
p341
sg5
g15
sg7
Vexpensive
p342
sg9
Vmediterranean
p343
sg11
g24
ssI85
(dp344
g3
Vtomorrow
p345
sg5
g88
sg7
Vdontcare
p346
sg9
Vthai
p347
sg11
g110
ssI86
(dp348
g3
Vtoday
p349
sg5
VParis
p350
sg7
Vcheap
p351
sg9
S'british'
p352
sg11
g29
ssI87
(dp353
g3
Vtoday
p354
sg5
VMumbai
p355
sg7
Vmoderate
p356
sg9
g85
sg11
g34
ssI88
(dp357
g3
Vtomorrow night
p358
sg5
VLondon
p359
sg7
Vexpensive
p360
sg9
g68
sg11
g12
ssI89
(dp361
g3
g41
sg5
VLisbon
p362
sg7
g180
sg9
Vthai
p363
sg11
g151
ssI90
(dp364
g3
g4
sg5
VTokyo
p365
sg7
g180
sg9
Vitalian
p366
sg11
g24
ssI91
(dp367
g3
g65
sg5
VParis
p368
sg7
Vcheap
p369
sg9
S'portuguese'
p370
sg11
g73
ssI92
(dp371
g3
g36
sg5
VParis
p372
sg7
Vmoderate
p373
sg9
g142
sg11
g69
ssI93
(dp374
g3
g65
sg5
VParis
p375
sg7
g47
sg9
Vitalian
p376
sg11
g99
ssI94
(dp377
g3
Vtoday
p378
sg5
VTokyo
p379
sg7
g180
sg9
Vportuguese
p380
sg11
g12
ssI95
(dp381
g3
Vtoday
p382
sg5
VMumbai
p383
sg7
Vcheap
p384
sg9
g246
sg11
g12
ssI96
(dp385
g3
g14
sg5
VParis
p386
sg7
g27
sg9
Vthai
p387
sg11
g54
ssI97
(dp388
g3
Vtoday
p389
sg5
VTokyo
p390
sg7
Vexpensive
p391
sg9
g58
sg11
g73
ssI98
(dp392
g3
g41
sg5
VMumbai
p393
sg7
Vcheap
p394
sg9
g53
sg11
g24
ssI99
(dp395
g3
g14
sg5
g88
sg7
Vdontcare
p396
sg9
Vgastropub
p397
sg11
g54
ssI100
(dp398
g3
Vtomorrow
p399
sg5
VLondon
p400
sg7
g27
sg9
Vchinese
p401
sg11
g54
ssI101
(dp402
g3
g36
sg5
VMumbai
p403
sg7
g27
sg9
Vfrench
p404
sg11
g12
ssI102
(dp405
g3
g41
sg5
g21
sg7
Vmoderate
p406
sg9
Veuropean
p407
sg11
g18
ssI103
(dp408
g3
g65
sg5
VNew York
p409
sg7
g180
sg9
Veuropean
p410
sg11
g18
ssI104
(dp411
g3
Vtomorrow night
p412
sg5
g6
sg7
Vdontcare
p413
sg9
Vfrench
p414
sg11
g18
ssI105
(dp415
g3
Vtonight
p416
sg5
VMumbai
p417
sg7
g47
sg9
Vindian
p418
sg11
g110
ssI106
(dp419
g3
g36
sg5
VLisbon
p420
sg7
g27
sg9
Veuropean
p421
sg11
g110
ssI107
(dp422
g3
g4
sg5
VMumbai
p423
sg7
Vcheap
p424
sg9
S'mediterranean'
p425
sg11
g151
ssI108
(dp426
g3
g36
sg5
VTokyo
p427
sg7
Vmoderate
p428
sg9
g68
sg11
g69
ssI109
(dp429
g3
g14
sg5
g21
sg7
Vdontcare
p430
sg9
Vgastropub
p431
sg11
g69
ssI110
(dp432
g3
Vtoday
p433
sg5
g21
sg7
Vmoderate
p434
sg9
Vmodern european
p435
sg11
g151
ssI111
(dp436
g3
g36
sg5
g15
sg7
Vdontcare
p437
sg9
Vvietnamese
p438
sg11
g29
ssI112
(dp439
g3
g41
sg5
VMumbai
p440
sg7
Vmoderate
p441
sg9
g109
sg11
g110
ssI113
(dp442
g3
g14
sg5
g15
sg7
Vmoderate
p443
sg9
Vasian oriental
p444
sg11
g12
ssI114
(dp445
g3
g41
sg5
VLisbon
p446
sg7
g180
sg9
Vinternational
p447
sg11
g99
ssI115
(dp448
g3
g36
sg5
g75
sg7
Vcheap
p449
sg9
Vmediterranean
p450
sg11
g73
ssI116
(dp451
g3
Vtonight
p452
sg5
VTokyo
p453
sg7
Vcheap
p454
sg9
g246
sg11
g73
ssI117
(dp455
g3
Vtomorrow night
p456
sg5
VNew York
p457
sg7
g47
sg9
Vinternational
p458
sg11
g69
ssI118
(dp459
g3
g65
sg5
g6
sg7
Vdontcare
p460
sg9
Vthai
p461
sg11
g29
ssI119
(dp462
g3
Vtomorrow night
p463
sg5
g21
sg7
Vdontcare
p464
sg9
Vportuguese
p465
sg11
g24
ssI120
(dp466
g3
Vtoday
p467
sg5
g88
sg7
Vexpensive
p468
sg9
Vasian oriental
p469
sg11
g110
ssI121
(dp470
g3
Vtomorrow night
p471
sg5
VParis
p472
sg7
g47
sg9
Vitalian
p473
sg11
g73
ssI122
(dp474
g3
g14
sg5
g15
sg7
Vexpensive
p475
sg9
Vmediterranean
p476
sg11
g18
ssI123
(dp477
g3
g65
sg5
g6
sg7
Vdontcare
p478
sg9
Vasian oriental
p479
sg11
g110
ssI124
(dp480
g3
Vtoday
p481
sg5
VMumbai
p482
sg7
Vcheap
p483
sg9
g352
sg11
g34
ssI125
(dp484
g3
Vtoday
p485
sg5
VLondon
p486
sg7
g180
sg9
Vindian
p487
sg11
g24
ssI126
(dp488
g3
Vtomorrow night
p489
sg5
g6
sg7
Vmoderate
p490
sg9
Vturkish
p491
sg11
g99
ssI127
(dp492
g3
g41
sg5
VParis
p493
sg7
Vmoderate
p494
sg9
g155
sg11
g151
ssI128
(dp495
g3
Vtomorrow
p496
sg5
VMumbai
p497
sg7
Vcheap
p498
sg9
g128
sg11
g12
ssI129
(dp499
g3
Vtoday
p500
sg5
VTokyo
p501
sg7
g47
sg9
Vchinese
p502
sg11
g69
ssI130
(dp503
g3
g36
sg5
VTokyo
p504
sg7
Vexpensive
p505
sg9
g246
sg11
g110
ssI131
(dp506
g3
Vtomorrow night
p507
sg5
VParis
p508
sg7
Vcheap
p509
sg9
g200
sg11
g99
ssI132
(dp510
g3
Vtonight
p511
sg5
g75
sg7
Vcheap
p512
sg9
Vportuguese
p513
sg11
g24
ssI133
(dp514
g3
Vtoday
p515
sg5
VNew York
p516
sg7
g180
sg9
Vfrench
p517
sg11
g73
ssI134
(dp518
g3
g4
sg5
VTokyo
p519
sg7
g180
sg9
Vportuguese
p520
sg11
g73
ssI135
(dp521
g3
Vtoday
p522
sg5
VTokyo
p523
sg7
Vcheap
p524
sg9
g85
sg11
g34
ssI136
(dp525
g3
Vtoday
p526
sg5
g88
sg7
Vdontcare
p527
sg9
Vportuguese
p528
sg11
g151
ssI137
(dp529
g3
g36
sg5
g6
sg7
Vdontcare
p530
sg9
Veuropean
p531
sg11
g24
ssI138
(dp532
g3
Vtomorrow
p533
sg5
g88
sg7
Vdontcare
p534
sg9
Vasian oriental
p535
sg11
g69
ssI139
(dp536
g3
Vtomorrow night
p537
sg5
g184
sg7
Vdontcare
p538
sg9
Vgastropub
p539
sg11
g24
ssI140
(dp540
g3
Vtoday
p541
sg5
VLondon
p542
sg7
g180
sg9
Vindian
p543
sg11
g99
ssI141
(dp544
g3
Vtomorrow night
p545
sg5
VTokyo
p546
sg7
Vcheap
p547
sg9
g155
sg11
g151
ssI142
(dp548
g3
Vtomorrow night
p549
sg5
VParis
p550
sg7
Vmoderate
p551
sg9
g85
sg11
g34
ssI143
(dp552
g3
Vtoday
p553
sg5
VNew York
p554
sg7
g38
sg9
Vturkish
p555
sg11
g24
ssI144
(dp556
g3
g41
sg5
VLisbon
p557
sg7
g47
sg9
Vbritish
p558
sg11
g69
ssI145
(dp559
g3
Vtomorrow night
p560
sg5
VTokyo
p561
sg7
Vmoderate
p562
sg9
g200
sg11
g34
ssI146
(dp563
g3
Vtomorrow night
p564
sg5
g88
sg7
Vexpensive
p565
sg9
Vfrench
p566
sg11
g73
ssI147
(dp567
g3
g36
sg5
VMumbai
p568
sg7
g180
sg9
Vitalian
p569
sg11
g73
ssI148
(dp570
g3
g14
sg5
g6
sg7
Vdontcare
p571
sg9
Vfrench
p572
sg11
g151
ssI149
(dp573
g3
g41
sg5
VTokyo
p574
sg7
g180
sg9
Vportuguese
p575
sg11
g110
ssI150
(dp576
g3
g65
sg5
VTokyo
p577
sg7
Vexpensive
p578
sg9
g425
sg11
g12
ssI151
(dp579
g3
Vtomorrow night
p580
sg5
VMumbai
p581
sg7
g27
sg9
Vindian
p582
sg11
g18
ssI152
(dp583
g3
Vtoday
p584
sg5
g21
sg7
Vmoderate
p585
sg9
Vgastropub
p586
sg11
g151
ssI153
(dp587
g3
g14
sg5
g75
sg7
Vcheap
p588
sg9
Vmediterranean
p589
sg11
g29
ssI154
(dp590
g3
Vtomorrow night
p591
sg5
g15
sg7
Vdontcare
p592
sg9
Vvietnamese
p593
sg11
g99
ssI155
(dp594
g3
Vtomorrow
p595
sg5
VLisbon
p596
sg7
g38
sg9
Vafrican
p597
sg11
g99
ssI156
(dp598
g3
g4
sg5
g75
sg7
Vdontcare
p599
sg9
Veuropean
p600
sg11
g24
ssI157
(dp601
g3
Vtomorrow night
p602
sg5
g88
sg7
Vdontcare
p603
sg9
Vinternational
p604
sg11
g99
ssI158
(dp605
g3
Vtonight
p606
sg5
VTokyo
p607
sg7
Vmoderate
p608
sg9
g196
sg11
g24
ssI159
(dp609
g3
Vtomorrow night
p610
sg5
VTokyo
p611
sg7
Vexpensive
p612
sg9
g200
sg11
g24
ss.