(lp1
(dp2
Vrequest_slots
p3
(dp4
sVdiaact
p5
Vrequest
p6
sVinform_slots
p7
(dp8
Vfood
p9
Vturkish
p10
sVdate
p11
Vtomorrow
p12
sVnumberofpeople
p13
I6
sVpricerange
p14
Vexpensive
p15
sVcity
p16
VLisbon
p17
ssa(dp18
Vrequest_slots
p19
(dp20
sVdiaact
p21
Vrequest
p22
sVinform_slots
p23
(dp24
Vfood
p25
Vkorean
p26
sVdate
p27
Vtomorrow night
p28
sVnumberofpeople
p29
I2
sVpricerange
p30
Vdontcare
p31
sVcity
p32
VParis
p33
ssa(dp34
Vrequest_slots
p35
(dp36
sVdiaact
p37
Vrequest
p38
sVinform_slots
p39
(dp40
Vfood
p41
Vasian oriental
p42
sVdate
p43
Vtomorrow night
p44
sVnumberofpeople
p45
I6
sVpricerange
p46
Vmoderate
p47
sVcity
p48
VNew York
p49
ssa(dp50
Vrequest_slots
p51
(dp52
sVdiaact
p53
Vrequest
p54
sVinform_slots
p55
(dp56
Vfood
p57
Vitalian
p58
sVcity
p59
VParis
p60
sVpricerange
p61
Vcheap
p62
sVnumberofpeople
p63
I6
sVdate
p64
Vtomorrow night
p65
ssa(dp66
Vrequest_slots
p67
(dp68
sVdiaact
p69
Vrequest
p70
sVinform_slots
p71
(dp72
Vfood
p73
Vthai
p74
sVcity
p75
VParis
p76
sVpricerange
p77
Vdontcare
p78
sVnumberofpeople
p79
I1
sVdate
p80
Vtomorrow night
p81
ssa(dp82
Vrequest_slots
p83
(dp84
Vdate
p85
VUKN
p86
sVpricerange
p87
VUKN
p88
sVaddr
p89
VUKN
p90
ssVdiaact
p91
Vrequest
p92
sVinform_slots
p93
(dp94
Vfood
p95
Vthai
p96
sVcity
p97
VTokyo
p98
sVnumberofpeople
p99
I2
ssa(dp100
Vrequest_slots
p101
(dp102
sVdiaact
p103
Vrequest
p104
sVinform_slots
p105
(dp106
Vfood
p107
Vthai
p108
sVcity
p109
VLisbon
p110
sVpricerange
p111
Vcheap
p112
sVnumberofpeople
p113
I2
sVdate
p114
Vsunday
p115
ssa(dp116
Vrequest_slots
p117
(dp118
sVdiaact
p119
Vrequest
p120
sVinform_slots
p121
(dp122
Vfood
p123
Vinternational
p124
sVcity
p125
VLisbon
p126
sVpricerange
p127
Vcheap
p128
sVnumberofpeople
p129
I8
sVdate
p130
Vsunday
p131
ssa(dp132
Vrequest_slots
p133
(dp134
sVdiaact
p135
Vrequest
p136
sVinform_slots
p137
(dp138
Vfood
p139
Vchinese
p140
sVcity
p141
VLondon
p142
sVpricerange
p143
Vmoderate
p144
sVnumberofpeople
p145
I2
sVdate
p146
Vtonight
p147
ssa(dp148
Vrequest_slots
p149
(dp150
Vcity
p151
VUKN
p152
sVpricerange
p153
VUKN
p154
sVaddr
p155
VUKN
p156
ssVdiaact
p157
Vrequest
p158
sVinform_slots
p159
(dp160
Vfood
p161
Veuropean
p162
sVdate
p163
Vtonight
p164
sVnumberofpeople
p165
I2
ssa(dp166
Vrequest_slots
p167
(dp168
Vdate
p169
VUKN
p170
sVcity
p171
VUKN
p172
sVaddr
p173
VUKN
p174
ssVdiaact
p175
Vrequest
p176
sVinform_slots
p177
(dp178
Vfood
p179
Vchinese
p180
sVnumberofpeople
p181
I8
sVpricerange
p182
Vmoderate
p183
ssa(dp184
Vrequest_slots
p185
(dp186
Vdate
p187
VUKN
p188
sVpricerange
p189
VUKN
p190
sVaddr
p191
VUKN
p192
ssVdiaact
p193
Vrequest
p194
sVinform_slots
p195
(dp196
Vfood
p197
Vmodern european
p198
sVcity
p199
VTokyo
p200
sVnumberofpeople
p201
I2
ssa(dp202
Vrequest_slots
p203
(dp204
Vdate
p205
VUKN
p206
sVfood
p207
VUKN
p208
sVaddr
p209
VUKN
p210
ssVdiaact
p211
Vrequest
p212
sVinform_slots
p213
(dp214
Vcity
p215
VParis
p216
sVnumberofpeople
p217
I6
sVpricerange
p218
Vcheap
p219
ssa(dp220
Vrequest_slots
p221
(dp222
Vfood
p223
VUKN
p224
sVaddr
p225
VUKN
p226
ssVdiaact
p227
Vrequest
p228
sVinform_slots
p229
(dp230
Vdate
p231
Vtonight
p232
sVcity
p233
VLondon
p234
sVnumberofpeople
p235
I6
sVpricerange
p236
Vmoderate
p237
ssa(dp238
Vrequest_slots
p239
(dp240
Vcity
p241
VUKN
p242
sVaddr
p243
VUKN
p244
ssVdiaact
p245
Vrequest
p246
sVinform_slots
p247
(dp248
Vfood
p249
Vitalian
p250
sVdate
p251
Vtomorrow night
p252
sVnumberofpeople
p253
I4
sVpricerange
p254
Vexpensive
p255
ssa(dp256
Vrequest_slots
p257
(dp258
Vfood
p259
VUKN
p260
sVdate
p261
VUKN
p262
sVaddr
p263
VUKN
p264
ssVdiaact
p265
Vrequest
p266
sVinform_slots
p267
(dp268
Vcity
p269
VMumbai
p270
sVnumberofpeople
p271
I8
sVpricerange
p272
Vmoderate
p273
ssa(dp274
Vrequest_slots
p275
(dp276
sVdiaact
p277
Vrequest
p278
sVinform_slots
p279
(dp280
Vfood
p281
Vmediterranean
p282
sVdate
p283
Vtomorrow night
p284
sVnumberofpeople
p285
I1
sVpricerange
p286
Vexpensive
p287
sVcity
p288
VParis
p289
ssa(dp290
Vrequest_slots
p291
(dp292
Vdate
p293
VUKN
p294
sVcity
p295
VUKN
p296
sVaddr
p297
VUKN
p298
ssVdiaact
p299
Vrequest
p300
sVinform_slots
p301
(dp302
Vfood
p303
Vgastropub
p304
sVnumberofpeople
p305
I8
sVpricerange
p306
Vdontcare
p307
ssa(dp308
Vrequest_slots
p309
(dp310
Vdate
p311
VUKN
p312
sVpricerange
p313
VUKN
p314
sVaddr
p315
VUKN
p316
ssVdiaact
p317
Vrequest
p318
sVinform_slots
p319
(dp320
Vfood
p321
Vitalian
p322
sVcity
p323
VTokyo
p324
sVnumberofpeople
p325
I2
ssa(dp326
Vrequest_slots
p327
(dp328
Vpricerange
p329
VUKN
p330
sVaddr
p331
VUKN
p332
ssVdiaact
p333
Vrequest
p334
sVinform_slots
p335
(dp336
Vfood
p337
Vindian
p338
sVcity
p339
VMumbai
p340
sVnumberofpeople
p341
I2
sVdate
p342
Vtonight
p343
ssa(dp344
Vrequest_slots
p345
(dp346
Vcity
p347
VUKN
p348
sVaddr
p349
VUKN
p350
ssVdiaact
p351
Vrequest
p352
sVinform_slots
p353
(dp354
Vfood
p355
Vthai
p356
sVdate
p357
Vtomorrow
p358
sVnumberofpeople
p359
I6
sVpricerange
p360
Vdontcare
p361
ssa(dp362
Vrequest_slots
p363
(dp364
Vfood
p365
VUKN
p366
sVaddr
p367
VUKN
p368
ssVdiaact
p369
Vrequest
p370
sVinform_slots
p371
(dp372
Vdate
p373
Vtomorrow
p374
sVcity
p375
VLondon
p376
sVnumberofpeople
p377
I6
sVpricerange
p378
Vcheap
p379
ssa(dp380
Vrequest_slots
p381
(dp382
sVdiaact
p383
Vrequest
p384
sVinform_slots
p385
(dp386
Vfood
p387
Vmodern european
p388
sVdate
p389
Vtoday
p390
sVnumberofpeople
p391
I6
sVpricerange
p392
Vmoderate
p393
sVcity
p394
VTokyo
p395
ssa(dp396
Vrequest_slots
p397
(dp398
Vdate
p399
VUKN
p400
sVpricerange
p401
VUKN
p402
sVaddr
p403
VUKN
p404
ssVdiaact
p405
Vrequest
p406
sVinform_slots
p407
(dp408
Vfood
p409
Vchinese
p410
sVcity
p411
VLondon
p412
sVnumberofpeople
p413
I2
ssa(dp414
Vrequest_slots
p415
(dp416
sVdiaact
p417
Vrequest
p418
sVinform_slots
p419
(dp420
Vfood
p421
Vchinese
p422
sVcity
p423
VTokyo
p424
sVpricerange
p425
Vmoderate
p426
sVnumberofpeople
p427
I8
sVdate
p428
Vtoday
p429
ssa(dp430
Vrequest_slots
p431
(dp432
Vdate
p433
VUKN
p434
sVcity
p435
VUKN
p436
sVaddr
p437
VUKN
p438
ssVdiaact
p439
Vrequest
p440
sVinform_slots
p441
(dp442
Vfood
p443
Veuropean
p444
sVnumberofpeople
p445
I8
sVpricerange
p446
Vexpensive
p447
ssa(dp448
Vrequest_slots
p449
(dp450
Vpricerange
p451
VUKN
p452
sVaddr
p453
VUKN
p454
ssVdiaact
p455
Vrequest
p456
sVinform_slots
p457
(dp458
Vfood
p459
Vmediterranean
p460
sVcity
p461
VLisbon
p462
sVnumberofpeople
p463
I1
sVdate
p464
Vtoday
p465
ssa(dp466
Vrequest_slots
p467
(dp468
Vdate
p469
VUKN
p470
sVfood
p471
VUKN
p472
sVaddr
p473
VUKN
p474
ssVdiaact
p475
Vrequest
p476
sVinform_slots
p477
(dp478
Vcity
p479
VMumbai
p480
sVnumberofpeople
p481
I2
sVpricerange
p482
Vcheap
p483
ssa(dp484
Vrequest_slots
p485
(dp486
sVdiaact
p487
Vrequest
p488
sVinform_slots
p489
(dp490
Vfood
p491
Veuropean
p492
sVcity
p493
VLisbon
p494
sVpricerange
p495
Vdontcare
p496
sVnumberofpeople
p497
I2
sVdate
p498
Vtonight
p499
ssa(dp500
Vrequest_slots
p501
(dp502
Vdate
p503
VUKN
p504
sVpricerange
p505
VUKN
p506
sVaddr
p507
VUKN
p508
ssVdiaact
p509
Vrequest
p510
sVinform_slots
p511
(dp512
Vfood
p513
Vturkish
p514
sVcity
p515
VNew York
p516
sVnumberofpeople
p517
I8
ssa(dp518
Vrequest_slots
p519
(dp520
Vcity
p521
VUKN
p522
sVaddr
p523
VUKN
p524
ssVdiaact
p525
Vrequest
p526
sVinform_slots
p527
(dp528
Vfood
p529
Vvietnamese
p530
sVdate
p531
Vtomorrow
p532
sVnumberofpeople
p533
I2
sVpricerange
p534
Vdontcare
p535
ssa(dp536
Vrequest_slots
p537
(dp538
Vfood
p539
VUKN
p540
sVaddr
p541
VUKN
p542
ssVdiaact
p543
Vrequest
p544
sVinform_slots
p545
(dp546
Vdate
p547
Vtomorrow night
p548
sVcity
p549
VMumbai
p550
sVnumberofpeople
p551
I4
sVpricerange
p552
Vcheap
p553
ssa(dp554
Vrequest_slots
p555
(dp556
Vdate
p557
VUKN
p558
sVcity
p559
VUKN
p560
sVaddr
p561
VUKN
p562
ssVdiaact
p563
Vrequest
p564
sVinform_slots
p565
(dp566
Vfood
p567
Vkorean
p568
sVnumberofpeople
p569
I2
sVpricerange
p570
Vdontcare
p571
ssa(dp572
Vrequest_slots
p573
(dp574
Vdate
p575
VUKN
p576
sVcity
p577
VUKN
p578
sVaddr
p579
VUKN
p580
ssVdiaact
p581
Vrequest
p582
sVinform_slots
p583
(dp584
Vfood
p585
Vmexican
p586
sVnumberofpeople
p587
I2
sVpricerange
p588
Vdontcare
p589
ssa(dp590
Vrequest_slots
p591
(dp592
sVdiaact
p593
Vrequest
p594
sVinform_slots
p595
(dp596
Vfood
p597
Vvietnamese
p598
sVcity
p599
VParis
p600
sVpricerange
p601
Vmoderate
p602
sVnumberofpeople
p603
I6
sVdate
p604
Vsunday
p605
ssa(dp606
Vrequest_slots
p607
(dp608
Vdate
p609
VUKN
p610
sVpricerange
p611
VUKN
p612
sVaddr
p613
VUKN
p614
ssVdiaact
p615
Vrequest
p616
sVinform_slots
p617
(dp618
Vfood
p619
Vkorean
p620
sVcity
p621
VLisbon
p622
sVnumberofpeople
p623
I6
ssa(dp624
Vrequest_slots
p625
(dp626
Vfood
p627
VUKN
p628
sVdate
p629
VUKN
p630
sVaddr
p631
VUKN
p632
ssVdiaact
p633
Vrequest
p634
sVinform_slots
p635
(dp636
Vcity
p637
VLondon
p638
sVnumberofpeople
p639
I6
sVpricerange
p640
Vexpensive
p641
ssa(dp642
Vrequest_slots
p643
(dp644
Vcity
p645
VUKN
p646
sVaddr
p647
VUKN
p648
ssVdiaact
p649
Vrequest
p650
sVinform_slots
p651
(dp652
Vfood
p653
Vturkish
p654
sVdate
p655
Vtomorrow night
p656
sVnumberofpeople
p657
I8
sVpricerange
p658
Vmoderate
p659
ssa(dp660
Vrequest_slots
p661
(dp662
Vdate
p663
VUKN
p664
sVcity
p665
VUKN
p666
sVaddr
p667
VUKN
p668
ssVdiaact
p669
Vrequest
p670
sVinform_slots
p671
(dp672
Vfood
p673
Vasian oriental
p674
sVnumberofpeople
p675
I4
sVpricerange
p676
Vmoderate
p677
ssa(dp678
Vrequest_slots
p679
(dp680
Vdate
p681
VUKN
p682
sVcity
p683
VUKN
p684
sVaddr
p685
VUKN
p686
ssVdiaact
p687
Vrequest
p688
sVinform_slots
p689
(dp690
Vfood
p691
Vgastropub
p692
sVnumberofpeople
p693
I2
sVpricerange
p694
Vmoderate
p695
ssa(dp696
Vrequest_slots
p697
(dp698
Vdate
p699
VUKN
p700
sVcity
p701
VUKN
p702
sVaddr
p703
VUKN
p704
ssVdiaact
p705
Vrequest
p706
sVinform_slots
p707
(dp708
Vfood
p709
Vmodern european
p710
sVnumberofpeople
p711
I1
sVpricerange
p712
Vexpensive
p713
ssa(dp714
Vrequest_slots
p715
(dp716
sVdiaact
p717
Vrequest
p718
sVinform_slots
p719
(dp720
Vfood
p721
Vspanish
p722
sVcity
p723
VLisbon
p724
sVpricerange
p725
Vcheap
p726
sVnumberofpeople
p727
I2
sVdate
p728
Vtomorrow night
p729
ssa(dp730
Vrequest_slots
p731
(dp732
Vfood
p733
VUKN
p734
sVdate
p735
VUKN
p736
sVaddr
p737
VUKN
p738
ssVdiaact
p739
Vrequest
p740
sVinform_slots
p741
(dp742
Vcity
p743
VTokyo
p744
sVnumberofpeople
p745
I4
sVpricerange
p746
Vmoderate
p747
ssa(dp748
Vrequest_slots
p749
(dp750
Vdate
p751
VUKN
p752
sVcity
p753
VUKN
p754
sVaddr
p755
VUKN
p756
ssVdiaact
p757
Vrequest
p758
sVinform_slots
p759
(dp760
Vfood
p761
Vvietnamese
p762
sVnumberofpeople
p763
I6
sVpricerange
p764
Vcheap
p765
ssa(dp766
Vrequest_slots
p767
(dp768
Vfood
p769
VUKN
p770
sVpricerange
p771
VUKN
p772
sVaddr
p773
VUKN
p774
ssVdiaact
p775
Vrequest
p776
sVinform_slots
p777
(dp778
Vdate
p779
Vtonight
p780
sVcity
p781
VNew York
p782
sVnumberofpeople
p783
I2
ssa(dp784
Vrequest_slots
p785
(dp786
Vfood
p787
VUKN
p788
sVaddr
p789
VUKN
p790
ssVdiaact
p791
Vrequest
p792
sVinform_slots
p793
(dp794
Vdate
p795
Vtoday
p796
sVcity
p797
VTokyo
p798
sVnumberofpeople
p799
I1
sVpricerange
p800
Vexpensive
p801
ssa(dp802
Vrequest_slots
p803
(dp804
sVdiaact
p805
Vrequest
p806
sVinform_slots
p807
(dp808
Vfood
p809
Vasian oriental
p810
sVdate
p811
Vtoday
p812
sVnumberofpeople
p813
I8
sVpricerange
p814
Vexpensive
p815
sVcity
p816
VMumbai
p817
ssa(dp818
Vrequest_slots
p819
(dp820
Vpricerange
p821
VUKN
p822
sVaddr
p823
VUKN
p824
ssVdiaact
p825
Vrequest
p826
sVinform_slots
p827
(dp828
Vfood
p829
Vitalian
p830
sVcity
p831
VParis
p832
sVnumberofpeople
p833
I8
sVdate
p834
Vtoday
p835
ssa(dp836
Vrequest_slots
p837
(dp838
Vpricerange
p839
VUKN
p840
sVaddr
p841
VUKN
p842
ssVdiaact
p843
Vrequest
p844
sVinform_slots
p845
(dp846
Vfood
p847
Vthai
p848
sVcity
p849
VNew York
p850
sVnumberofpeople
p851
I2
sVdate
p852
Vtonight
p853
ssa(dp854
Vrequest_slots
p855
(dp856
Vcity
p857
VUKN
p858
sVaddr
p859
VUKN
p860
ssVdiaact
p861
Vrequest
p862
sVinform_slots
p863
(dp864
Vfood
p865
Vmodern european
p866
sVdate
p867
Vtoday
p868
sVnumberofpeople
p869
I6
sVpricerange
p870
Vmoderate
p871
ssa.