(lp1
(dp2
Vrequest_slots
p3
(dp4
sVdiaact
p5
Vrequest
p6
sVinform_slots
p7
(dp8
Vfood
p9
Vkorean
p10
sVdate
p11
Vtomorrow night
p12
sVnumberofpeople
p13
I2
sVpricerange
p14
Vdontcare
p15
sVcity
p16
VParis
p17
ssa(dp18
Vrequest_slots
p19
(dp20
sVdiaact
p21
Vrequest
p22
sVinform_slots
p23
(dp24
Vfood
p25
Vturkish
p26
sVdate
p27
Vtomorrow
p28
sVnumberofpeople
p29
I6
sVpricerange
p30
Vexpensive
p31
sVcity
p32
VLisbon
p33
ssa(dp34
Vrequest_slots
p35
(dp36
sVdiaact
p37
Vrequest
p38
sVinform_slots
p39
(dp40
Vfood
p41
Vasian oriental
p42
sVdate
p43
Vtomorrow night
p44
sVnumberofpeople
p45
I6
sVpricerange
p46
Vmoderate
p47
sVcity
p48
VNew York
p49
ssa(dp50
Vrequest_slots
p51
(dp52
sVdiaact
p53
Vrequest
p54
sVinform_slots
p55
(dp56
Vfood
p57
Vitalian
p58
sVcity
p59
VParis
p60
sVpricerange
p61
Vcheap
p62
sVnumberofpeople
p63
I6
sVdate
p64
Vtomorrow night
p65
ssa(dp66
Vrequest_slots
p67
(dp68
sVdiaact
p69
Vrequest
p70
sVinform_slots
p71
(dp72
Vfood
p73
Vinternational
p74
sVcity
p75
VLisbon
p76
sVpricerange
p77
Vcheap
p78
sVnumberofpeople
p79
I8
sVdate
p80
Vsunday
p81
ssa(dp82
Vrequest_slots
p83
(dp84
sVdiaact
p85
Vrequest
p86
sVinform_slots
p87
(dp88
Vfood
p89
Vasian oriental
p90
sVdate
p91
Vtomorrow night
p92
sVnumberofpeople
p93
I2
sVpricerange
p94
Vmoderate
p95
sVcity
p96
VNew York
p97
ssa(dp98
Vrequest_slots
p99
(dp100
sVdiaact
p101
Vrequest
p102
sVinform_slots
p103
(dp104
Vfood
p105
Vchinese
p106
sVcity
p107
VLondon
p108
sVpricerange
p109
Vmoderate
p110
sVnumberofpeople
p111
I2
sVdate
p112
Vtonight
p113
ssa(dp114
Vrequest_slots
p115
(dp116
sVdiaact
p117
Vrequest
p118
sVinform_slots
p119
(dp120
Vfood
p121
Vthai
p122
sVcity
p123
VLisbon
p124
sVpricerange
p125
Vcheap
p126
sVnumberofpeople
p127
I2
sVdate
p128
Vsunday
p129
ssa(dp130
Vrequest_slots
p131
(dp132
sVdiaact
p133
Vrequest
p134
sVinform_slots
p135
(dp136
Vfood
p137
Vmediterranean
p138
sVdate
p139
Vtomorrow night
p140
sVnumberofpeople
p141
I1
sVpricerange
p142
Vexpensive
p143
sVcity
p144
VParis
p145
ssa(dp146
Vrequest_slots
p147
(dp148
Vcity
p149
VUKN
p150
sVpricerange
p151
VUKN
p152
sVaddr
p153
VUKN
p154
ssVdiaact
p155
Vrequest
p156
sVinform_slots
p157
(dp158
Vfood
p159
Veuropean
p160
sVdate
p161
Vtonight
p162
sVnumberofpeople
p163
I2
ssa(dp164
Vrequest_slots
p165
(dp166
Vfood
p167
VUKN
p168
sVdate
p169
VUKN
p170
sVaddr
p171
VUKN
p172
ssVdiaact
p173
Vrequest
p174
sVinform_slots
p175
(dp176
Vcity
p177
VMumbai
p178
sVnumberofpeople
p179
I8
sVpricerange
p180
Vmoderate
p181
ssa(dp182
Vrequest_slots
p183
(dp184
Vdate
p185
VUKN
p186
sVcity
p187
VUKN
p188
sVaddr
p189
VUKN
p190
ssVdiaact
p191
Vrequest
p192
sVinform_slots
p193
(dp194
Vfood
p195
Vchinese
p196
sVnumberofpeople
p197
I8
sVpricerange
p198
Vmoderate
p199
ssa(dp200
Vrequest_slots
p201
(dp202
Vdate
p203
VUKN
p204
sVpricerange
p205
VUKN
p206
sVaddr
p207
VUKN
p208
ssVdiaact
p209
Vrequest
p210
sVinform_slots
p211
(dp212
Vfood
p213
Vmodern european
p214
sVcity
p215
VTokyo
p216
sVnumberofpeople
p217
I2
ssa(dp218
Vrequest_slots
p219
(dp220
Vdate
p221
VUKN
p222
sVfood
p223
VUKN
p224
sVaddr
p225
VUKN
p226
ssVdiaact
p227
Vrequest
p228
sVinform_slots
p229
(dp230
Vcity
p231
VParis
p232
sVnumberofpeople
p233
I6
sVpricerange
p234
Vcheap
p235
ssa(dp236
Vrequest_slots
p237
(dp238
Vfood
p239
VUKN
p240
sVaddr
p241
VUKN
p242
ssVdiaact
p243
Vrequest
p244
sVinform_slots
p245
(dp246
Vdate
p247
Vtonight
p248
sVcity
p249
VLondon
p250
sVnumberofpeople
p251
I6
sVpricerange
p252
Vmoderate
p253
ssa(dp254
Vrequest_slots
p255
(dp256
Vcity
p257
VUKN
p258
sVaddr
p259
VUKN
p260
ssVdiaact
p261
Vrequest
p262
sVinform_slots
p263
(dp264
Vfood
p265
Vitalian
p266
sVdate
p267
Vtomorrow night
p268
sVnumberofpeople
p269
I4
sVpricerange
p270
Vexpensive
p271
ssa(dp272
Vrequest_slots
p273
(dp274
Vdate
p275
VUKN
p276
sVpricerange
p277
VUKN
p278
sVaddr
p279
VUKN
p280
ssVdiaact
p281
Vrequest
p282
sVinform_slots
p283
(dp284
Vfood
p285
Vitalian
p286
sVcity
p287
VTokyo
p288
sVnumberofpeople
p289
I2
ssa(dp290
Vrequest_slots
p291
(dp292
Vdate
p293
VUKN
p294
sVcity
p295
VUKN
p296
sVaddr
p297
VUKN
p298
ssVdiaact
p299
Vrequest
p300
sVinform_slots
p301
(dp302
Vfood
p303
Vgastropub
p304
sVnumberofpeople
p305
I8
sVpricerange
p306
Vdontcare
p307
ssa(dp308
Vrequest_slots
p309
(dp310
Vpricerange
p311
VUKN
p312
sVaddr
p313
VUKN
p314
ssVdiaact
p315
Vrequest
p316
sVinform_slots
p317
(dp318
Vfood
p319
Vindian
p320
sVcity
p321
VMumbai
p322
sVnumberofpeople
p323
I2
sVdate
p324
Vtonight
p325
ssa(dp326
Vrequest_slots
p327
(dp328
Vdate
p329
VUKN
p330
sVpricerange
p331
VUKN
p332
sVaddr
p333
VUKN
p334
ssVdiaact
p335
Vrequest
p336
sVinform_slots
p337
(dp338
Vfood
p339
Vthai
p340
sVcity
p341
VTokyo
p342
sVnumberofpeople
p343
I2
ssa(dp344
Vrequest_slots
p345
(dp346
Vcity
p347
VUKN
p348
sVaddr
p349
VUKN
p350
ssVdiaact
p351
Vrequest
p352
sVinform_slots
p353
(dp354
Vfood
p355
Vthai
p356
sVdate
p357
Vtomorrow
p358
sVnumberofpeople
p359
I6
sVpricerange
p360
Vdontcare
p361
ssa(dp362
Vrequest_slots
p363
(dp364
Vdate
p365
VUKN
p366
sVfood
p367
VUKN
p368
sVaddr
p369
VUKN
p370
ssVdiaact
p371
Vrequest
p372
sVinform_slots
p373
(dp374
Vcity
p375
VMumbai
p376
sVnumberofpeople
p377
I2
sVpricerange
p378
Vcheap
p379
ssa(dp380
Vrequest_slots
p381
(dp382
Vfood
p383
VUKN
p384
sVaddr
p385
VUKN
p386
ssVdiaact
p387
Vrequest
p388
sVinform_slots
p389
(dp390
Vdate
p391
Vtomorrow
p392
sVcity
p393
VLondon
p394
sVnumberofpeople
p395
I6
sVpricerange
p396
Vcheap
p397
ssa(dp398
Vrequest_slots
p399
(dp400
Vdate
p401
VUKN
p402
sVpricerange
p403
VUKN
p404
sVaddr
p405
VUKN
p406
ssVdiaact
p407
Vrequest
p408
sVinform_slots
p409
(dp410
Vfood
p411
Vchinese
p412
sVcity
p413
VLondon
p414
sVnumberofpeople
p415
I2
ssa(dp416
Vrequest_slots
p417
(dp418
Vcity
p419
VUKN
p420
sVaddr
p421
VUKN
p422
ssVdiaact
p423
Vrequest
p424
sVinform_slots
p425
(dp426
Vfood
p427
Vvietnamese
p428
sVdate
p429
Vtomorrow
p430
sVnumberofpeople
p431
I2
sVpricerange
p432
Vdontcare
p433
ssa(dp434
Vrequest_slots
p435
(dp436
Vdate
p437
VUKN
p438
sVcity
p439
VUKN
p440
sVaddr
p441
VUKN
p442
ssVdiaact
p443
Vrequest
p444
sVinform_slots
p445
(dp446
Vfood
p447
Veuropean
p448
sVnumberofpeople
p449
I8
sVpricerange
p450
Vexpensive
p451
ssa(dp452
Vrequest_slots
p453
(dp454
Vpricerange
p455
VUKN
p456
sVaddr
p457
VUKN
p458
ssVdiaact
p459
Vrequest
p460
sVinform_slots
p461
(dp462
Vfood
p463
Vmediterranean
p464
sVcity
p465
VLisbon
p466
sVnumberofpeople
p467
I1
sVdate
p468
Vtoday
p469
ssa(dp470
Vrequest_slots
p471
(dp472
Vdate
p473
VUKN
p474
sVpricerange
p475
VUKN
p476
sVaddr
p477
VUKN
p478
ssVdiaact
p479
Vrequest
p480
sVinform_slots
p481
(dp482
Vfood
p483
Vturkish
p484
sVcity
p485
VNew York
p486
sVnumberofpeople
p487
I8
ssa(dp488
Vrequest_slots
p489
(dp490
Vdate
p491
VUKN
p492
sVcity
p493
VUKN
p494
sVaddr
p495
VUKN
p496
ssVdiaact
p497
Vrequest
p498
sVinform_slots
p499
(dp500
Vfood
p501
Vmexican
p502
sVnumberofpeople
p503
I2
sVpricerange
p504
Vdontcare
p505
ssa(dp506
Vrequest_slots
p507
(dp508
Vdate
p509
VUKN
p510
sVpricerange
p511
VUKN
p512
sVaddr
p513
VUKN
p514
ssVdiaact
p515
Vrequest
p516
sVinform_slots
p517
(dp518
Vfood
p519
Vkorean
p520
sVcity
p521
VLisbon
p522
sVnumberofpeople
p523
I6
ssa.