(lp1
(dp2
Vrequest_slots
p3
(dp4
sVdiaact
p5
Vrequest
p6
sVinform_slots
p7
(dp8
Vfood
p9
Vkorean
p10
sVdate
p11
Vtomorrow night
p12
sVnumberofpeople
p13
I2
sVpricerange
p14
Vdontcare
p15
sVcity
p16
VParis
p17
ssa(dp18
Vrequest_slots
p19
(dp20
sVdiaact
p21
Vrequest
p22
sVinform_slots
p23
(dp24
Vfood
p25
Vturkish
p26
sVdate
p27
Vtomorrow
p28
sVnumberofpeople
p29
I6
sVpricerange
p30
Vexpensive
p31
sVcity
p32
VLisbon
p33
ssa(dp34
Vrequest_slots
p35
(dp36
sVdiaact
p37
Vrequest
p38
sVinform_slots
p39
(dp40
Vfood
p41
Vasian oriental
p42
sVdate
p43
Vtomorrow night
p44
sVnumberofpeople
p45
I6
sVpricerange
p46
Vmoderate
p47
sVcity
p48
VNew York
p49
ssa(dp50
Vrequest_slots
p51
(dp52
sVdiaact
p53
Vrequest
p54
sVinform_slots
p55
(dp56
Vfood
p57
Vitalian
p58
sVcity
p59
VParis
p60
sVpricerange
p61
Vcheap
p62
sVnumberofpeople
p63
I6
sVdate
p64
Vtomorrow night
p65
ssa(dp66
Vrequest_slots
p67
(dp68
sVdiaact
p69
Vrequest
p70
sVinform_slots
p71
(dp72
Vfood
p73
Vinternational
p74
sVcity
p75
VLisbon
p76
sVpricerange
p77
Vcheap
p78
sVnumberofpeople
p79
I8
sVdate
p80
Vsunday
p81
ssa(dp82
Vrequest_slots
p83
(dp84
sVdiaact
p85
Vrequest
p86
sVinform_slots
p87
(dp88
Vfood
p89
Vasian oriental
p90
sVdate
p91
Vtomorrow night
p92
sVnumberofpeople
p93
I2
sVpricerange
p94
Vmoderate
p95
sVcity
p96
VNew York
p97
ssa(dp98
Vrequest_slots
p99
(dp100
Vcity
p101
VUKN
p102
sVpricerange
p103
VUKN
p104
sVaddr
p105
VUKN
p106
ssVdiaact
p107
Vrequest
p108
sVinform_slots
p109
(dp110
Vfood
p111
Veuropean
p112
sVdate
p113
Vtonight
p114
sVnumberofpeople
p115
I2
ssa(dp116
Vrequest_slots
p117
(dp118
Vfood
p119
VUKN
p120
sVdate
p121
VUKN
p122
sVaddr
p123
VUKN
p124
ssVdiaact
p125
Vrequest
p126
sVinform_slots
p127
(dp128
Vcity
p129
VMumbai
p130
sVnumberofpeople
p131
I8
sVpricerange
p132
Vmoderate
p133
ssa(dp134
Vrequest_slots
p135
(dp136
Vdate
p137
VUKN
p138
sVcity
p139
VUKN
p140
sVaddr
p141
VUKN
p142
ssVdiaact
p143
Vrequest
p144
sVinform_slots
p145
(dp146
Vfood
p147
Vchinese
p148
sVnumberofpeople
p149
I8
sVpricerange
p150
Vmoderate
p151
ssa(dp152
Vrequest_slots
p153
(dp154
Vdate
p155
VUKN
p156
sVpricerange
p157
VUKN
p158
sVaddr
p159
VUKN
p160
ssVdiaact
p161
Vrequest
p162
sVinform_slots
p163
(dp164
Vfood
p165
Vmodern european
p166
sVcity
p167
VTokyo
p168
sVnumberofpeople
p169
I2
ssa(dp170
Vrequest_slots
p171
(dp172
Vdate
p173
VUKN
p174
sVfood
p175
VUKN
p176
sVaddr
p177
VUKN
p178
ssVdiaact
p179
Vrequest
p180
sVinform_slots
p181
(dp182
Vcity
p183
VParis
p184
sVnumberofpeople
p185
I6
sVpricerange
p186
Vcheap
p187
ssa(dp188
Vrequest_slots
p189
(dp190
Vfood
p191
VUKN
p192
sVaddr
p193
VUKN
p194
ssVdiaact
p195
Vrequest
p196
sVinform_slots
p197
(dp198
Vdate
p199
Vtonight
p200
sVcity
p201
VLondon
p202
sVnumberofpeople
p203
I6
sVpricerange
p204
Vmoderate
p205
ssa(dp206
Vrequest_slots
p207
(dp208
Vcity
p209
VUKN
p210
sVaddr
p211
VUKN
p212
ssVdiaact
p213
Vrequest
p214
sVinform_slots
p215
(dp216
Vfood
p217
Vitalian
p218
sVdate
p219
Vtomorrow night
p220
sVnumberofpeople
p221
I4
sVpricerange
p222
Vexpensive
p223
ssa(dp224
Vrequest_slots
p225
(dp226
Vdate
p227
VUKN
p228
sVpricerange
p229
VUKN
p230
sVaddr
p231
VUKN
p232
ssVdiaact
p233
Vrequest
p234
sVinform_slots
p235
(dp236
Vfood
p237
Vitalian
p238
sVcity
p239
VTokyo
p240
sVnumberofpeople
p241
I2
ssa(dp242
Vrequest_slots
p243
(dp244
Vdate
p245
VUKN
p246
sVcity
p247
VUKN
p248
sVaddr
p249
VUKN
p250
ssVdiaact
p251
Vrequest
p252
sVinform_slots
p253
(dp254
Vfood
p255
Vgastropub
p256
sVnumberofpeople
p257
I8
sVpricerange
p258
Vdontcare
p259
ssa(dp260
Vrequest_slots
p261
(dp262
Vpricerange
p263
VUKN
p264
sVaddr
p265
VUKN
p266
ssVdiaact
p267
Vrequest
p268
sVinform_slots
p269
(dp270
Vfood
p271
Vindian
p272
sVcity
p273
VMumbai
p274
sVnumberofpeople
p275
I2
sVdate
p276
Vtonight
p277
ssa(dp278
Vrequest_slots
p279
(dp280
Vpricerange
p281
VUKN
p282
sVaddr
p283
VUKN
p284
ssVdiaact
p285
Vrequest
p286
sVinform_slots
p287
(dp288
Vfood
p289
Vthai
p290
sVdate
p291
Vsunday
p292
sVnumberofpeople
p293
I2
sVcity
p294
VParis
p295
ssa(dp296
Vrequest_slots
p297
(dp298
Vcity
p299
VUKN
p300
sVaddr
p301
VUKN
p302
ssVdiaact
p303
Vrequest
p304
sVinform_slots
p305
(dp306
Vfood
p307
Vthai
p308
sVdate
p309
Vtomorrow
p310
sVnumberofpeople
p311
I6
sVpricerange
p312
Vdontcare
p313
ssa(dp314
Vrequest_slots
p315
(dp316
Vdate
p317
VUKN
p318
sVcity
p319
VUKN
p320
sVaddr
p321
VUKN
p322
ssVdiaact
p323
Vrequest
p324
sVinform_slots
p325
(dp326
Vfood
p327
Vportuguese
p328
sVnumberofpeople
p329
I2
sVpricerange
p330
Vcheap
p331
ssa(dp332
Vrequest_slots
p333
(dp334
Vfood
p335
VUKN
p336
sVaddr
p337
VUKN
p338
ssVdiaact
p339
Vrequest
p340
sVinform_slots
p341
(dp342
Vdate
p343
Vtomorrow
p344
sVcity
p345
VLondon
p346
sVnumberofpeople
p347
I6
sVpricerange
p348
Vcheap
p349
ssa.