(lp1
(dp2
Vrequest_slots
p3
(dp4
sVdiaact
p5
Vrequest
p6
sVinform_slots
p7
(dp8
Vfood
p9
Vkorean
p10
sVdate
p11
Vtomorrow night
p12
sVnumberofpeople
p13
I2
sVpricerange
p14
Vdontcare
p15
sVcity
p16
VParis
p17
ssa(dp18
Vrequest_slots
p19
(dp20
sVdiaact
p21
Vrequest
p22
sVinform_slots
p23
(dp24
Vfood
p25
Vturkish
p26
sVdate
p27
Vtomorrow
p28
sVnumberofpeople
p29
I6
sVpricerange
p30
Vexpensive
p31
sVcity
p32
VLisbon
p33
ssa(dp34
Vrequest_slots
p35
(dp36
sVdiaact
p37
Vrequest
p38
sVinform_slots
p39
(dp40
Vfood
p41
Vasian oriental
p42
sVdate
p43
Vtomorrow night
p44
sVnumberofpeople
p45
I6
sVpricerange
p46
Vmoderate
p47
sVcity
p48
VNew York
p49
ssa(dp50
Vrequest_slots
p51
(dp52
Vcity
p53
VUKN
p54
sVpricerange
p55
VUKN
p56
sVaddr
p57
VUKN
p58
ssVdiaact
p59
Vrequest
p60
sVinform_slots
p61
(dp62
Vfood
p63
Veuropean
p64
sVdate
p65
Vtonight
p66
sVnumberofpeople
p67
I2
ssa(dp68
Vrequest_slots
p69
(dp70
Vfood
p71
VUKN
p72
sVdate
p73
VUKN
p74
sVaddr
p75
VUKN
p76
ssVdiaact
p77
Vrequest
p78
sVinform_slots
p79
(dp80
Vcity
p81
VMumbai
p82
sVnumberofpeople
p83
I8
sVpricerange
p84
Vmoderate
p85
ssa(dp86
Vrequest_slots
p87
(dp88
Vdate
p89
VUKN
p90
sVcity
p91
VUKN
p92
sVaddr
p93
VUKN
p94
ssVdiaact
p95
Vrequest
p96
sVinform_slots
p97
(dp98
Vfood
p99
Vchinese
p100
sVnumberofpeople
p101
I8
sVpricerange
p102
Vmoderate
p103
ssa(dp104
Vrequest_slots
p105
(dp106
Vdate
p107
VUKN
p108
sVpricerange
p109
VUKN
p110
sVaddr
p111
VUKN
p112
ssVdiaact
p113
Vrequest
p114
sVinform_slots
p115
(dp116
Vfood
p117
Vmodern european
p118
sVcity
p119
VTokyo
p120
sVnumberofpeople
p121
I2
ssa(dp122
Vrequest_slots
p123
(dp124
Vdate
p125
VUKN
p126
sVfood
p127
VUKN
p128
sVaddr
p129
VUKN
p130
ssVdiaact
p131
Vrequest
p132
sVinform_slots
p133
(dp134
Vcity
p135
VParis
p136
sVnumberofpeople
p137
I6
sVpricerange
p138
Vcheap
p139
ssa(dp140
Vrequest_slots
p141
(dp142
Vfood
p143
VUKN
p144
sVaddr
p145
VUKN
p146
ssVdiaact
p147
Vrequest
p148
sVinform_slots
p149
(dp150
Vdate
p151
Vtonight
p152
sVcity
p153
VLondon
p154
sVnumberofpeople
p155
I6
sVpricerange
p156
Vmoderate
p157
ssa(dp158
Vrequest_slots
p159
(dp160
Vcity
p161
VUKN
p162
sVaddr
p163
VUKN
p164
ssVdiaact
p165
Vrequest
p166
sVinform_slots
p167
(dp168
Vfood
p169
Vitalian
p170
sVdate
p171
Vtomorrow night
p172
sVnumberofpeople
p173
I4
sVpricerange
p174
Vexpensive
p175
ssa.