(lp1
(dp2
Vrequest_slots
p3
(dp4
sVdiaact
p5
Vrequest
p6
sVinform_slots
p7
(dp8
Vfood
p9
Vkorean
p10
sVdate
p11
Vtomorrow night
p12
sVnumberofpeople
p13
I2
sVpricerange
p14
Vdontcare
p15
sVcity
p16
VParis
p17
ssa(dp18
Vrequest_slots
p19
(dp20
sVdiaact
p21
Vrequest
p22
sVinform_slots
p23
(dp24
Vfood
p25
Vturkish
p26
sVdate
p27
Vtomorrow
p28
sVnumberofpeople
p29
I6
sVpricerange
p30
Vexpensive
p31
sVcity
p32
VLisbon
p33
ssa(dp34
Vrequest_slots
p35
(dp36
Vcity
p37
VUKN
p38
sVpricerange
p39
VUKN
p40
sVaddr
p41
VUKN
p42
ssVdiaact
p43
Vrequest
p44
sVinform_slots
p45
(dp46
Vfood
p47
Veuropean
p48
sVdate
p49
Vtonight
p50
sVnumberofpeople
p51
I2
ssa(dp52
Vrequest_slots
p53
(dp54
Vfood
p55
VUKN
p56
sVdate
p57
VUKN
p58
sVaddr
p59
VUKN
p60
ssVdiaact
p61
Vrequest
p62
sVinform_slots
p63
(dp64
Vcity
p65
VMumbai
p66
sVnumberofpeople
p67
I8
sVpricerange
p68
Vmoderate
p69
ssa(dp70
Vrequest_slots
p71
(dp72
Vdate
p73
VUKN
p74
sVcity
p75
VUKN
p76
sVaddr
p77
VUKN
p78
ssVdiaact
p79
Vrequest
p80
sVinform_slots
p81
(dp82
Vfood
p83
Vchinese
p84
sVnumberofpeople
p85
I8
sVpricerange
p86
Vmoderate
p87
ssa.