(lp1
(dp2
Vrequest_slots
p3
(dp4
Vdate
p5
VUKN
p6
sVcity
p7
VUKN
p8
sVaddr
p9
VUKN
p10
ssVdiaact
p11
Vrequest
p12
sVinform_slots
p13
(dp14
Vfood
p15
Vkorean
p16
sVnumberofpeople
p17
I2
sVpricerange
p18
Vdontcare
p19
ssa(dp20
Vrequest_slots
p21
(dp22
sVdiaact
p23
Vrequest
p24
sVinform_slots
p25
(dp26
Vfood
p27
Vkorean
p28
sVdate
p29
Vtomorrow night
p30
sVnumberofpeople
p31
I2
sVpricerange
p32
Vdontcare
p33
sVcity
p34
VParis
p35
ssa(dp36
Vrequest_slots
p37
(dp38
Vcity
p39
VUKN
p40
sVaddr
p41
VUKN
p42
ssVdiaact
p43
Vrequest
p44
sVinform_slots
p45
(dp46
Vfood
p47
Vjapanese
p48
sVdate
p49
Vtonight
p50
sVnumberofpeople
p51
I8
sVpricerange
p52
Vdontcare
p53
ssa(dp54
Vrequest_slots
p55
(dp56
sVdiaact
p57
Vrequest
p58
sVinform_slots
p59
(dp60
Vfood
p61
Vjapanese
p62
sVdate
p63
Vtonight
p64
sVnumberofpeople
p65
I8
sVpricerange
p66
Vdontcare
p67
sVcity
p68
VTokyo
p69
ssa(dp70
Vrequest_slots
p71
(dp72
Vdate
p73
VUKN
p74
sVpricerange
p75
VUKN
p76
sVaddr
p77
VUKN
p78
ssVdiaact
p79
Vrequest
p80
sVinform_slots
p81
(dp82
Vfood
p83
Vmodern european
p84
sVcity
p85
VLisbon
p86
sVnumberofpeople
p87
I1
ssa(dp88
Vrequest_slots
p89
(dp90
Vpricerange
p91
VUKN
p92
sVaddr
p93
VUKN
p94
ssVdiaact
p95
Vrequest
p96
sVinform_slots
p97
(dp98
Vfood
p99
Vchinese
p100
sVcity
p101
VMumbai
p102
sVnumberofpeople
p103
I1
sVdate
p104
Vtoday
p105
ssa(dp106
Vrequest_slots
p107
(dp108
Vdate
p109
VUKN
p110
sVpricerange
p111
VUKN
p112
sVaddr
p113
VUKN
p114
ssVdiaact
p115
Vrequest
p116
sVinform_slots
p117
(dp118
Vfood
p119
Vchinese
p120
sVcity
p121
VTokyo
p122
sVnumberofpeople
p123
I8
ssa(dp124
Vrequest_slots
p125
(dp126
sVdiaact
p127
Vrequest
p128
sVinform_slots
p129
(dp130
Vfood
p131
Vchinese
p132
sVcity
p133
VTokyo
p134
sVpricerange
p135
Vmoderate
p136
sVnumberofpeople
p137
I8
sVdate
p138
Vtoday
p139
ssa(dp140
Vrequest_slots
p141
(dp142
sVdiaact
p143
Vrequest
p144
sVinform_slots
p145
(dp146
Vfood
p147
Vitalian
p148
sVcity
p149
VParis
p150
sVpricerange
p151
Vdontcare
p152
sVnumberofpeople
p153
I4
sVdate
p154
Vtonight
p155
ssa(dp156
Vrequest_slots
p157
(dp158
Vfood
p159
VUKN
p160
sVaddr
p161
VUKN
p162
ssVdiaact
p163
Vrequest
p164
sVinform_slots
p165
(dp166
Vdate
p167
Vtoday
p168
sVcity
p169
VTokyo
p170
sVnumberofpeople
p171
I4
sVpricerange
p172
Vexpensive
p173
ssa(dp174
Vrequest_slots
p175
(dp176
Vfood
p177
VUKN
p178
sVdate
p179
VUKN
p180
sVaddr
p181
VUKN
p182
ssVdiaact
p183
Vrequest
p184
sVinform_slots
p185
(dp186
Vcity
p187
VParis
p188
sVnumberofpeople
p189
I2
sVpricerange
p190
Vmoderate
p191
ssa(dp192
Vrequest_slots
p193
(dp194
Vfood
p195
VUKN
p196
sVaddr
p197
VUKN
p198
ssVdiaact
p199
Vrequest
p200
sVinform_slots
p201
(dp202
Vdate
p203
Vtonight
p204
sVcity
p205
VParis
p206
sVnumberofpeople
p207
I8
sVpricerange
p208
Vmoderate
p209
ssa(dp210
Vrequest_slots
p211
(dp212
sVdiaact
p213
Vrequest
p214
sVinform_slots
p215
(dp216
Vfood
p217
Vseafood
p218
sVcity
p219
VTokyo
p220
sVnumberofpeople
p221
I2
sVpricerange
p222
Vexpensive
p223
sVdate
p224
Vtomorrow night
p225
ssa(dp226
Vrequest_slots
p227
(dp228
Vdate
p229
VUKN
p230
sVcity
p231
VUKN
p232
sVaddr
p233
VUKN
p234
ssVdiaact
p235
Vrequest
p236
sVinform_slots
p237
(dp238
Vfood
p239
Vkorean
p240
sVnumberofpeople
p241
I2
sVpricerange
p242
Vdontcare
p243
ssa(dp244
Vrequest_slots
p245
(dp246
sVdiaact
p247
Vrequest
p248
sVinform_slots
p249
(dp250
Vfood
p251
Vturkish
p252
sVdate
p253
Vtomorrow
p254
sVnumberofpeople
p255
I6
sVpricerange
p256
Vexpensive
p257
sVcity
p258
VLisbon
p259
ssa(dp260
Vrequest_slots
p261
(dp262
Vpricerange
p263
VUKN
p264
sVaddr
p265
VUKN
p266
ssVdiaact
p267
Vrequest
p268
sVinform_slots
p269
(dp270
Vfood
p271
Vchinese
p272
sVcity
p273
VMumbai
p274
sVnumberofpeople
p275
I4
sVdate
p276
Vtomorrow
p277
ssa(dp278
Vrequest_slots
p279
(dp280
sVdiaact
p281
Vrequest
p282
sVinform_slots
p283
(dp284
Vfood
p285
Vnorth american
p286
sVcity
p287
VMumbai
p288
sVnumberofpeople
p289
I6
sVpricerange
p290
Vcheap
p291
sVdate
p292
Vsunday
p293
ssa(dp294
Vrequest_slots
p295
(dp296
Vcity
p297
VUKN
p298
sVaddr
p299
VUKN
p300
ssVdiaact
p301
Vrequest
p302
sVinform_slots
p303
(dp304
Vfood
p305
Vgastropub
p306
sVdate
p307
Vtomorrow
p308
sVnumberofpeople
p309
I1
sVpricerange
p310
Vmoderate
p311
ssa(dp312
Vrequest_slots
p313
(dp314
sVdiaact
p315
Vrequest
p316
sVinform_slots
p317
(dp318
Vfood
p319
Vgastropub
p320
sVdate
p321
Vtomorrow
p322
sVnumberofpeople
p323
I1
sVpricerange
p324
Vmoderate
p325
sVcity
p326
VMumbai
p327
ssa(dp328
Vrequest_slots
p329
(dp330
Vcity
p331
VUKN
p332
sVaddr
p333
VUKN
p334
ssVdiaact
p335
Vrequest
p336
sVinform_slots
p337
(dp338
Vfood
p339
Vvietnamese
p340
sVdate
p341
Vtoday
p342
sVnumberofpeople
p343
I6
sVpricerange
p344
Vdontcare
p345
ssa(dp346
Vrequest_slots
p347
(dp348
sVdiaact
p349
Vrequest
p350
sVinform_slots
p351
(dp352
Vfood
p353
Vvietnamese
p354
sVdate
p355
Vtoday
p356
sVnumberofpeople
p357
I6
sVpricerange
p358
Vdontcare
p359
sVcity
p360
VLisbon
p361
ssa(dp362
Vrequest_slots
p363
(dp364
Vcity
p365
VUKN
p366
sVaddr
p367
VUKN
p368
ssVdiaact
p369
Vrequest
p370
sVinform_slots
p371
(dp372
Vfood
p373
Vitalian
p374
sVdate
p375
Vtomorrow night
p376
sVnumberofpeople
p377
I6
sVpricerange
p378
Vcheap
p379
ssa(dp380
Vrequest_slots
p381
(dp382
sVdiaact
p383
Vrequest
p384
sVinform_slots
p385
(dp386
Vdate
p387
Vtoday
p388
sVcity
p389
VMumbai
p390
sVnumberofpeople
p391
I8
sVpricerange
p392
Vcheap
p393
sVfood
p394
Vbritish
p395
ssa(dp396
Vrequest_slots
p397
(dp398
Vfood
p399
VUKN
p400
sVaddr
p401
VUKN
p402
ssVdiaact
p403
Vrequest
p404
sVinform_slots
p405
(dp406
Vdate
p407
Vtomorrow night
p408
sVcity
p409
VParis
p410
sVnumberofpeople
p411
I2
sVpricerange
p412
Vcheap
p413
ssa(dp414
Vrequest_slots
p415
(dp416
Vfood
p417
VUKN
p418
sVdate
p419
VUKN
p420
sVaddr
p421
VUKN
p422
ssVdiaact
p423
Vrequest
p424
sVinform_slots
p425
(dp426
Vcity
p427
VMumbai
p428
sVnumberofpeople
p429
I6
sVpricerange
p430
Vmoderate
p431
ssa(dp432
Vrequest_slots
p433
(dp434
Vdate
p435
VUKN
p436
sVpricerange
p437
VUKN
p438
sVaddr
p439
VUKN
p440
ssVdiaact
p441
Vrequest
p442
sVinform_slots
p443
(dp444
Vfood
p445
Vturkish
p446
sVcity
p447
VNew York
p448
sVnumberofpeople
p449
I8
ssa(dp450
Vrequest_slots
p451
(dp452
Vdate
p453
VUKN
p454
sVpricerange
p455
VUKN
p456
sVaddr
p457
VUKN
p458
ssVdiaact
p459
Vrequest
p460
sVinform_slots
p461
(dp462
Vfood
p463
Vvietnamese
p464
sVcity
p465
VParis
p466
sVnumberofpeople
p467
I6
ssa(dp468
Vrequest_slots
p469
(dp470
sVdiaact
p471
Vrequest
p472
sVinform_slots
p473
(dp474
Vfood
p475
Vvietnamese
p476
sVcity
p477
VParis
p478
sVpricerange
p479
Vmoderate
p480
sVnumberofpeople
p481
I6
sVdate
p482
Vsunday
p483
ssa(dp484
Vrequest_slots
p485
(dp486
Vfood
p487
VUKN
p488
sVdate
p489
VUKN
p490
sVaddr
p491
VUKN
p492
ssVdiaact
p493
Vrequest
p494
sVinform_slots
p495
(dp496
Vcity
p497
VTokyo
p498
sVnumberofpeople
p499
I4
sVpricerange
p500
Vcheap
p501
ssa(dp502
Vrequest_slots
p503
(dp504
Vdate
p505
VUKN
p506
sVpricerange
p507
VUKN
p508
sVaddr
p509
VUKN
p510
ssVdiaact
p511
Vrequest
p512
sVinform_slots
p513
(dp514
Vfood
p515
Vitalian
p516
sVcity
p517
VTokyo
p518
sVnumberofpeople
p519
I4
ssa(dp520
Vrequest_slots
p521
(dp522
Vfood
p523
VUKN
p524
sVdate
p525
VUKN
p526
sVaddr
p527
VUKN
p528
ssVdiaact
p529
Vrequest
p530
sVinform_slots
p531
(dp532
Vcity
p533
VLondon
p534
sVnumberofpeople
p535
I6
sVpricerange
p536
Vmoderate
p537
ssa(dp538
Vrequest_slots
p539
(dp540
sVdiaact
p541
Vrequest
p542
sVinform_slots
p543
(dp544
Vfood
p545
Vchinese
p546
sVcity
p547
VLondon
p548
sVnumberofpeople
p549
I6
sVpricerange
p550
Vmoderate
p551
sVdate
p552
Vtonight
p553
ssa(dp554
Vrequest_slots
p555
(dp556
sVdiaact
p557
Vrequest
p558
sVinform_slots
p559
(dp560
Vfood
p561
Veuropean
p562
sVdate
p563
Vtomorrow
p564
sVnumberofpeople
p565
I4
sVpricerange
p566
Vcheap
p567
sVcity
p568
VParis
p569
ssa(dp570
Vrequest_slots
p571
(dp572
Vfood
p573
VUKN
p574
sVdate
p575
VUKN
p576
sVaddr
p577
VUKN
p578
ssVdiaact
p579
Vrequest
p580
sVinform_slots
p581
(dp582
Vcity
p583
VMumbai
p584
sVnumberofpeople
p585
I6
sVpricerange
p586
Vcheap
p587
ssa(dp588
Vrequest_slots
p589
(dp590
Vfood
p591
VUKN
p592
sVaddr
p593
VUKN
p594
ssVdiaact
p595
Vrequest
p596
sVinform_slots
p597
(dp598
Vdate
p599
Vtomorrow night
p600
sVcity
p601
VTokyo
p602
sVnumberofpeople
p603
I1
sVpricerange
p604
Vmoderate
p605
ssa(dp606
Vrequest_slots
p607
(dp608
sVdiaact
p609
Vrequest
p610
sVinform_slots
p611
(dp612
Vfood
p613
Vgastropub
p614
sVcity
p615
VMumbai
p616
sVnumberofpeople
p617
I8
sVpricerange
p618
Vmoderate
p619
sVdate
p620
Vtomorrow
p621
ssa(dp622
Vrequest_slots
p623
(dp624
sVdiaact
p625
Vrequest
p626
sVinform_slots
p627
(dp628
Vfood
p629
Vafrican
p630
sVcity
p631
VLisbon
p632
sVpricerange
p633
Vmoderate
p634
sVnumberofpeople
p635
I2
sVdate
p636
Vtomorrow
p637
ssa(dp638
Vrequest_slots
p639
(dp640
Vfood
p641
VUKN
p642
sVdate
p643
VUKN
p644
sVaddr
p645
VUKN
p646
ssVdiaact
p647
Vrequest
p648
sVinform_slots
p649
(dp650
Vcity
p651
VMumbai
p652
sVnumberofpeople
p653
I8
sVpricerange
p654
Vmoderate
p655
ssa(dp656
Vrequest_slots
p657
(dp658
sVdiaact
p659
Vrequest
p660
sVinform_slots
p661
(dp662
Vfood
p663
Vmexican
p664
sVdate
p665
Vsunday
p666
sVnumberofpeople
p667
I2
sVpricerange
p668
Vdontcare
p669
sVcity
p670
VMumbai
p671
ssa(dp672
Vrequest_slots
p673
(dp674
Vfood
p675
VUKN
p676
sVaddr
p677
VUKN
p678
ssVdiaact
p679
Vrequest
p680
sVinform_slots
p681
(dp682
Vdate
p683
Vtonight
p684
sVcity
p685
VTokyo
p686
sVnumberofpeople
p687
I4
sVpricerange
p688
Vexpensive
p689
ssa(dp690
Vrequest_slots
p691
(dp692
Vpricerange
p693
VUKN
p694
sVaddr
p695
VUKN
p696
ssVdiaact
p697
Vrequest
p698
sVinform_slots
p699
(dp700
Vfood
p701
Vspanish
p702
sVcity
p703
VLisbon
p704
sVnumberofpeople
p705
I2
sVdate
p706
Vtomorrow night
p707
ssa(dp708
Vrequest_slots
p709
(dp710
sVdiaact
p711
Vrequest
p712
sVinform_slots
p713
(dp714
Vfood
p715
Vportuguese
p716
sVdate
p717
Vtomorrow
p718
sVnumberofpeople
p719
I8
sVpricerange
p720
Vdontcare
p721
sVcity
p722
VNew York
p723
ssa(dp724
Vrequest_slots
p725
(dp726
Vdate
p727
VUKN
p728
sVcity
p729
VUKN
p730
sVaddr
p731
VUKN
p732
ssVdiaact
p733
Vrequest
p734
sVinform_slots
p735
(dp736
Vfood
p737
Vchinese
p738
sVnumberofpeople
p739
I8
sVpricerange
p740
Vmoderate
p741
ssa(dp742
Vrequest_slots
p743
(dp744
sVdiaact
p745
Vrequest
p746
sVinform_slots
p747
(dp748
Vfood
p749
Vindian
p750
sVcity
p751
VLondon
p752
sVpricerange
p753
Vmoderate
p754
sVnumberofpeople
p755
I8
sVdate
p756
Vsunday
p757
ssa(dp758
Vrequest_slots
p759
(dp760
Vfood
p761
VUKN
p762
sVdate
p763
VUKN
p764
sVaddr
p765
VUKN
p766
ssVdiaact
p767
Vrequest
p768
sVinform_slots
p769
(dp770
Vcity
p771
VTokyo
p772
sVnumberofpeople
p773
I4
sVpricerange
p774
Vmoderate
p775
ssa(dp776
Vrequest_slots
p777
(dp778
Vdate
p779
VUKN
p780
sVpricerange
p781
VUKN
p782
sVaddr
p783
VUKN
p784
ssVdiaact
p785
Vrequest
p786
sVinform_slots
p787
(dp788
Vfood
p789
Vindian
p790
sVcity
p791
VMumbai
p792
sVnumberofpeople
p793
I2
ssa(dp794
Vrequest_slots
p795
(dp796
Vcity
p797
VUKN
p798
sVaddr
p799
VUKN
p800
ssVdiaact
p801
Vrequest
p802
sVinform_slots
p803
(dp804
Vfood
p805
Vasian oriental
p806
sVdate
p807
Vtomorrow night
p808
sVnumberofpeople
p809
I6
sVpricerange
p810
Vmoderate
p811
ssa(dp812
Vrequest_slots
p813
(dp814
sVdiaact
p815
Vrequest
p816
sVinform_slots
p817
(dp818
Vfood
p819
Vasian oriental
p820
sVdate
p821
Vtomorrow night
p822
sVnumberofpeople
p823
I6
sVpricerange
p824
Vmoderate
p825
sVcity
p826
VNew York
p827
ssa(dp828
Vrequest_slots
p829
(dp830
sVdiaact
p831
Vrequest
p832
sVinform_slots
p833
(dp834
Vfood
p835
Vmodern european
p836
sVdate
p837
Vtoday
p838
sVnumberofpeople
p839
I1
sVpricerange
p840
Vexpensive
p841
sVcity
p842
VTokyo
p843
ssa(dp844
Vrequest_slots
p845
(dp846
sVdiaact
p847
Vrequest
p848
sVinform_slots
p849
(dp850
Vfood
p851
Vmodern european
p852
sVdate
p853
Vthis weekend
p854
sVnumberofpeople
p855
I1
sVpricerange
p856
Vexpensive
p857
sVcity
p858
VLisbon
p859
ssa(dp860
Vrequest_slots
p861
(dp862
Vdate
p863
VUKN
p864
sVpricerange
p865
VUKN
p866
sVaddr
p867
VUKN
p868
ssVdiaact
p869
Vrequest
p870
sVinform_slots
p871
(dp872
Vfood
p873
Vmodern european
p874
sVcity
p875
VTokyo
p876
sVnumberofpeople
p877
I2
ssa(dp878
Vrequest_slots
p879
(dp880
sVdiaact
p881
Vrequest
p882
sVinform_slots
p883
(dp884
Vfood
p885
Vmodern european
p886
sVcity
p887
VTokyo
p888
sVpricerange
p889
Vmoderate
p890
sVnumberofpeople
p891
I2
sVdate
p892
Vtoday
p893
ssa(dp894
Vrequest_slots
p895
(dp896
Vpricerange
p897
VUKN
p898
sVaddr
p899
VUKN
p900
ssVdiaact
p901
Vrequest
p902
sVinform_slots
p903
(dp904
Vfood
p905
Vitalian
p906
sVcity
p907
VParis
p908
sVnumberofpeople
p909
I8
sVdate
p910
Vtoday
p911
ssa(dp912
Vrequest_slots
p913
(dp914
Vfood
p915
VUKN
p916
sVdate
p917
VUKN
p918
sVaddr
p919
VUKN
p920
ssVdiaact
p921
Vrequest
p922
sVinform_slots
p923
(dp924
Vcity
p925
VMumbai
p926
sVnumberofpeople
p927
I4
sVpricerange
p928
Vcheap
p929
ssa(dp930
Vrequest_slots
p931
(dp932
Vpricerange
p933
VUKN
p934
sVaddr
p935
VUKN
p936
ssVdiaact
p937
Vrequest
p938
sVinform_slots
p939
(dp940
Vfood
p941
Vthai
p942
sVcity
p943
VNew York
p944
sVnumberofpeople
p945
I2
sVdate
p946
Vtonight
p947
ssa(dp948
Vrequest_slots
p949
(dp950
sVdiaact
p951
Vrequest
p952
sVinform_slots
p953
(dp954
Vfood
p955
Vthai
p956
sVcity
p957
VNew York
p958
sVpricerange
p959
Vdontcare
p960
sVnumberofpeople
p961
I2
sVdate
p962
Vtonight
p963
ssa(dp964
Vrequest_slots
p965
(dp966
sVdiaact
p967
Vrequest
p968
sVinform_slots
p969
(dp970
Vfood
p971
Vvietnamese
p972
sVdate
p973
Vtoday
p974
sVnumberofpeople
p975
I6
sVpricerange
p976
Vcheap
p977
sVcity
p978
VTokyo
p979
ssa(dp980
Vrequest_slots
p981
(dp982
Vdate
p983
VUKN
p984
sVpricerange
p985
VUKN
p986
sVaddr
p987
VUKN
p988
ssVdiaact
p989
Vrequest
p990
sVinform_slots
p991
(dp992
Vfood
p993
Vkorean
p994
sVcity
p995
VLisbon
p996
sVnumberofpeople
p997
I6
ssa(dp998
Vrequest_slots
p999
(dp1000
sVdiaact
p1001
Vrequest
p1002
sVinform_slots
p1003
(dp1004
Vfood
p1005
Vkorean
p1006
sVcity
p1007
VLisbon
p1008
sVpricerange
p1009
Vcheap
p1010
sVnumberofpeople
p1011
I6
sVdate
p1012
Vtomorrow
p1013
ssa(dp1014
Vrequest_slots
p1015
(dp1016
Vfood
p1017
VUKN
p1018
sVdate
p1019
VUKN
p1020
sVaddr
p1021
VUKN
p1022
ssVdiaact
p1023
Vrequest
p1024
sVinform_slots
p1025
(dp1026
Vcity
p1027
VMumbai
p1028
sVnumberofpeople
p1029
I4
sVpricerange
p1030
Vmoderate
p1031
ssa(dp1032
Vrequest_slots
p1033
(dp1034
sVdiaact
p1035
Vrequest
p1036
sVinform_slots
p1037
(dp1038
Vdate
p1039
Vtonight
p1040
sVcity
p1041
VLondon
p1042
sVnumberofpeople
p1043
I6
sVpricerange
p1044
Vmoderate
p1045
sVfood
p1046
Vlebanese
p1047
ssa(dp1048
Vrequest_slots
p1049
(dp1050
Vfood
p1051
VUKN
p1052
sVaddr
p1053
VUKN
p1054
ssVdiaact
p1055
Vrequest
p1056
sVinform_slots
p1057
(dp1058
Vdate
p1059
Vtonight
p1060
sVcity
p1061
VLondon
p1062
sVnumberofpeople
p1063
I6
sVpricerange
p1064
Vmoderate
p1065
ssa(dp1066
Vrequest_slots
p1067
(dp1068
Vdate
p1069
VUKN
p1070
sVcity
p1071
VUKN
p1072
sVaddr
p1073
VUKN
p1074
ssVdiaact
p1075
Vrequest
p1076
sVinform_slots
p1077
(dp1078
Vfood
p1079
Vthai
p1080
sVnumberofpeople
p1081
I8
sVpricerange
p1082
Vdontcare
p1083
ssa(dp1084
Vrequest_slots
p1085
(dp1086
Vdate
p1087
VUKN
p1088
sVpricerange
p1089
VUKN
p1090
sVaddr
p1091
VUKN
p1092
ssVdiaact
p1093
Vrequest
p1094
sVinform_slots
p1095
(dp1096
Vfood
p1097
Vchinese
p1098
sVcity
p1099
VLondon
p1100
sVnumberofpeople
p1101
I2
ssa(dp1102
Vrequest_slots
p1103
(dp1104
sVdiaact
p1105
Vrequest
p1106
sVinform_slots
p1107
(dp1108
Vfood
p1109
Vchinese
p1110
sVcity
p1111
VLondon
p1112
sVpricerange
p1113
Vmoderate
p1114
sVnumberofpeople
p1115
I2
sVdate
p1116
Vtonight
p1117
ssa(dp1118
Vrequest_slots
p1119
(dp1120
Vfood
p1121
VUKN
p1122
sVdate
p1123
VUKN
p1124
sVaddr
p1125
VUKN
p1126
ssVdiaact
p1127
Vrequest
p1128
sVinform_slots
p1129
(dp1130
Vcity
p1131
VLondon
p1132
sVnumberofpeople
p1133
I6
sVpricerange
p1134
Vexpensive
p1135
ssa(dp1136
Vrequest_slots
p1137
(dp1138
Vdate
p1139
VUKN
p1140
sVcity
p1141
VUKN
p1142
sVaddr
p1143
VUKN
p1144
ssVdiaact
p1145
Vrequest
p1146
sVinform_slots
p1147
(dp1148
Vfood
p1149
Vasian oriental
p1150
sVnumberofpeople
p1151
I4
sVpricerange
p1152
Vmoderate
p1153
ssa(dp1154
Vrequest_slots
p1155
(dp1156
Vcity
p1157
VUKN
p1158
sVaddr
p1159
VUKN
p1160
ssVdiaact
p1161
Vrequest
p1162
sVinform_slots
p1163
(dp1164
Vfood
p1165
Vportuguese
p1166
sVdate
p1167
Vtomorrow
p1168
sVnumberofpeople
p1169
I4
sVpricerange
p1170
Vdontcare
p1171
ssa(dp1172
Vrequest_slots
p1173
(dp1174
Vpricerange
p1175
VUKN
p1176
sVaddr
p1177
VUKN
p1178
ssVdiaact
p1179
Vrequest
p1180
sVinform_slots
p1181
(dp1182
Vfood
p1183
Vchinese
p1184
sVcity
p1185
VLondon
p1186
sVnumberofpeople
p1187
I2
sVdate
p1188
Vtonight
p1189
ssa(dp1190
Vrequest_slots
p1191
(dp1192
Vcity
p1193
VUKN
p1194
sVaddr
p1195
VUKN
p1196
ssVdiaact
p1197
Vrequest
p1198
sVinform_slots
p1199
(dp1200
Vfood
p1201
Vitalian
p1202
sVdate
p1203
Vtomorrow night
p1204
sVnumberofpeople
p1205
I4
sVpricerange
p1206
Vexpensive
p1207
ssa(dp1208
Vrequest_slots
p1209
(dp1210
Vdate
p1211
VUKN
p1212
sVcity
p1213
VUKN
p1214
sVaddr
p1215
VUKN
p1216
ssVdiaact
p1217
Vrequest
p1218
sVinform_slots
p1219
(dp1220
Vfood
p1221
Vportuguese
p1222
sVnumberofpeople
p1223
I2
sVpricerange
p1224
Vcheap
p1225
ssa(dp1226
Vrequest_slots
p1227
(dp1228
sVdiaact
p1229
Vrequest
p1230
sVinform_slots
p1231
(dp1232
Vfood
p1233
Vportuguese
p1234
sVdate
p1235
Vtomorrow
p1236
sVnumberofpeople
p1237
I2
sVpricerange
p1238
Vcheap
p1239
sVcity
p1240
VMumbai
p1241
ssa(dp1242
Vrequest_slots
p1243
(dp1244
Vfood
p1245
VUKN
p1246
sVdate
p1247
VUKN
p1248
sVaddr
p1249
VUKN
p1250
ssVdiaact
p1251
Vrequest
p1252
sVinform_slots
p1253
(dp1254
Vcity
p1255
VLondon
p1256
sVnumberofpeople
p1257
I2
sVpricerange
p1258
Vcheap
p1259
ssa(dp1260
Vrequest_slots
p1261
(dp1262
Vcity
p1263
VUKN
p1264
sVaddr
p1265
VUKN
p1266
ssVdiaact
p1267
Vrequest
p1268
sVinform_slots
p1269
(dp1270
Vfood
p1271
Vvietnamese
p1272
sVdate
p1273
Vtomorrow
p1274
sVnumberofpeople
p1275
I2
sVpricerange
p1276
Vdontcare
p1277
ssa(dp1278
Vrequest_slots
p1279
(dp1280
Vpricerange
p1281
VUKN
p1282
sVaddr
p1283
VUKN
p1284
ssVdiaact
p1285
Vrequest
p1286
sVinform_slots
p1287
(dp1288
Vfood
p1289
Vportuguese
p1290
sVcity
p1291
VTokyo
p1292
sVnumberofpeople
p1293
I2
sVdate
p1294
Vtonight
p1295
ssa(dp1296
Vrequest_slots
p1297
(dp1298
Vdate
p1299
VUKN
p1300
sVcity
p1301
VUKN
p1302
sVaddr
p1303
VUKN
p1304
ssVdiaact
p1305
Vrequest
p1306
sVinform_slots
p1307
(dp1308
Vfood
p1309
Veuropean
p1310
sVnumberofpeople
p1311
I8
sVpricerange
p1312
Vexpensive
p1313
ssa(dp1314
Vrequest_slots
p1315
(dp1316
Vfood
p1317
VUKN
p1318
sVaddr
p1319
VUKN
p1320
ssVdiaact
p1321
Vrequest
p1322
sVinform_slots
p1323
(dp1324
Vdate
p1325
Vtomorrow night
p1326
sVcity
p1327
VMumbai
p1328
sVnumberofpeople
p1329
I4
sVpricerange
p1330
Vcheap
p1331
ssa(dp1332
Vrequest_slots
p1333
(dp1334
Vfood
p1335
VUKN
p1336
sVaddr
p1337
VUKN
p1338
ssVdiaact
p1339
Vrequest
p1340
sVinform_slots
p1341
(dp1342
Vdate
p1343
Vtoday
p1344
sVcity
p1345
VMumbai
p1346
sVnumberofpeople
p1347
I8
sVpricerange
p1348
Vmoderate
p1349
ssa(dp1350
Vrequest_slots
p1351
(dp1352
Vpricerange
p1353
VUKN
p1354
sVaddr
p1355
VUKN
p1356
ssVdiaact
p1357
Vrequest
p1358
sVinform_slots
p1359
(dp1360
Vfood
p1361
Vmediterranean
p1362
sVcity
p1363
VLisbon
p1364
sVnumberofpeople
p1365
I1
sVdate
p1366
Vtoday
p1367
ssa(dp1368
Vrequest_slots
p1369
(dp1370
Vfood
p1371
VUKN
p1372
sVaddr
p1373
VUKN
p1374
ssVdiaact
p1375
Vrequest
p1376
sVinform_slots
p1377
(dp1378
Vdate
p1379
Vtoday
p1380
sVcity
p1381
VMumbai
p1382
sVnumberofpeople
p1383
I4
sVpricerange
p1384
Vcheap
p1385
ssa(dp1386
Vrequest_slots
p1387
(dp1388
sVdiaact
p1389
Vrequest
p1390
sVinform_slots
p1391
(dp1392
Vfood
p1393
Vseafood
p1394
sVcity
p1395
VLondon
p1396
sVnumberofpeople
p1397
I4
sVpricerange
p1398
Vexpensive
p1399
sVdate
p1400
Vtomorrow
p1401
ssa(dp1402
Vrequest_slots
p1403
(dp1404
Vcity
p1405
VUKN
p1406
sVaddr
p1407
VUKN
p1408
ssVdiaact
p1409
Vrequest
p1410
sVinform_slots
p1411
(dp1412
Vfood
p1413
Vmediterranean
p1414
sVdate
p1415
Vtomorrow night
p1416
sVnumberofpeople
p1417
I1
sVpricerange
p1418
Vexpensive
p1419
ssa(dp1420
Vrequest_slots
p1421
(dp1422
sVdiaact
p1423
Vrequest
p1424
sVinform_slots
p1425
(dp1426
Vfood
p1427
Vmediterranean
p1428
sVdate
p1429
Vtomorrow night
p1430
sVnumberofpeople
p1431
I1
sVpricerange
p1432
Vexpensive
p1433
sVcity
p1434
VParis
p1435
ssa(dp1436
Vrequest_slots
p1437
(dp1438
Vcity
p1439
VUKN
p1440
sVaddr
p1441
VUKN
p1442
ssVdiaact
p1443
Vrequest
p1444
sVinform_slots
p1445
(dp1446
Vfood
p1447
Vthai
p1448
sVdate
p1449
Vtomorrow
p1450
sVnumberofpeople
p1451
I6
sVpricerange
p1452
Vdontcare
p1453
ssa(dp1454
Vrequest_slots
p1455
(dp1456
Vfood
p1457
VUKN
p1458
sVaddr
p1459
VUKN
p1460
ssVdiaact
p1461
Vrequest
p1462
sVinform_slots
p1463
(dp1464
Vdate
p1465
Vtoday
p1466
sVcity
p1467
VMumbai
p1468
sVnumberofpeople
p1469
I8
sVpricerange
p1470
Vmoderate
p1471
ssa(dp1472
Vrequest_slots
p1473
(dp1474
Vdate
p1475
VUKN
p1476
sVpricerange
p1477
VUKN
p1478
sVaddr
p1479
VUKN
p1480
ssVdiaact
p1481
Vrequest
p1482
sVinform_slots
p1483
(dp1484
Vfood
p1485
Vthai
p1486
sVcity
p1487
VLisbon
p1488
sVnumberofpeople
p1489
I2
ssa(dp1490
Vrequest_slots
p1491
(dp1492
sVdiaact
p1493
Vrequest
p1494
sVinform_slots
p1495
(dp1496
Vfood
p1497
Vitalian
p1498
sVcity
p1499
VTokyo
p1500
sVpricerange
p1501
Vmoderate
p1502
sVnumberofpeople
p1503
I2
sVdate
p1504
Vtomorrow night
p1505
ssa(dp1506
Vrequest_slots
p1507
(dp1508
Vfood
p1509
VUKN
p1510
sVdate
p1511
VUKN
p1512
sVaddr
p1513
VUKN
p1514
ssVdiaact
p1515
Vrequest
p1516
sVinform_slots
p1517
(dp1518
Vcity
p1519
VParis
p1520
sVnumberofpeople
p1521
I1
sVpricerange
p1522
Vcheap
p1523
ssa(dp1524
Vrequest_slots
p1525
(dp1526
Vdate
p1527
VUKN
p1528
sVpricerange
p1529
VUKN
p1530
sVaddr
p1531
VUKN
p1532
ssVdiaact
p1533
Vrequest
p1534
sVinform_slots
p1535
(dp1536
Vfood
p1537
Vitalian
p1538
sVcity
p1539
VParis
p1540
sVnumberofpeople
p1541
I4
ssa(dp1542
Vrequest_slots
p1543
(dp1544
Vpricerange
p1545
VUKN
p1546
sVaddr
p1547
VUKN
p1548
ssVdiaact
p1549
Vrequest
p1550
sVinform_slots
p1551
(dp1552
Vfood
p1553
Vportuguese
p1554
sVcity
p1555
VTokyo
p1556
sVnumberofpeople
p1557
I6
sVdate
p1558
Vtoday
p1559
ssa(dp1560
Vrequest_slots
p1561
(dp1562
sVdiaact
p1563
Vrequest
p1564
sVinform_slots
p1565
(dp1566
Vfood
p1567
Vthai
p1568
sVcity
p1569
VParis
p1570
sVpricerange
p1571
Vdontcare
p1572
sVnumberofpeople
p1573
I1
sVdate
p1574
Vtomorrow night
p1575
ssa(dp1576
Vrequest_slots
p1577
(dp1578
Vfood
p1579
VUKN
p1580
sVaddr
p1581
VUKN
p1582
ssVdiaact
p1583
Vrequest
p1584
sVinform_slots
p1585
(dp1586
Vdate
p1587
Vtoday
p1588
sVcity
p1589
VTokyo
p1590
sVnumberofpeople
p1591
I1
sVpricerange
p1592
Vexpensive
p1593
ssa(dp1594
Vrequest_slots
p1595
(dp1596
Vfood
p1597
VUKN
p1598
sVdate
p1599
VUKN
p1600
sVaddr
p1601
VUKN
p1602
ssVdiaact
p1603
Vrequest
p1604
sVinform_slots
p1605
(dp1606
Vcity
p1607
VMumbai
p1608
sVnumberofpeople
p1609
I6
sVpricerange
p1610
Vcheap
p1611
ssa(dp1612
Vrequest_slots
p1613
(dp1614
Vdate
p1615
VUKN
p1616
sVcity
p1617
VUKN
p1618
sVaddr
p1619
VUKN
p1620
ssVdiaact
p1621
Vrequest
p1622
sVinform_slots
p1623
(dp1624
Vfood
p1625
Vgastropub
p1626
sVnumberofpeople
p1627
I8
sVpricerange
p1628
Vdontcare
p1629
ssa(dp1630
Vrequest_slots
p1631
(dp1632
Vpricerange
p1633
VUKN
p1634
sVaddr
p1635
VUKN
p1636
ssVdiaact
p1637
Vrequest
p1638
sVinform_slots
p1639
(dp1640
Vfood
p1641
Vchinese
p1642
sVcity
p1643
VLondon
p1644
sVnumberofpeople
p1645
I4
sVdate
p1646
Vtomorrow
p1647
ssa(dp1648
Vrequest_slots
p1649
(dp1650
Vdate
p1651
VUKN
p1652
sVpricerange
p1653
VUKN
p1654
sVaddr
p1655
VUKN
p1656
ssVdiaact
p1657
Vrequest
p1658
sVinform_slots
p1659
(dp1660
Vfood
p1661
Vfrench
p1662
sVcity
p1663
VMumbai
p1664
sVnumberofpeople
p1665
I8
ssa(dp1666
Vrequest_slots
p1667
(dp1668
Vdate
p1669
VUKN
p1670
sVcity
p1671
VUKN
p1672
sVaddr
p1673
VUKN
p1674
ssVdiaact
p1675
Vrequest
p1676
sVinform_slots
p1677
(dp1678
Vfood
p1679
Veuropean
p1680
sVnumberofpeople
p1681
I4
sVpricerange
p1682
Vmoderate
p1683
ssa(dp1684
Vrequest_slots
p1685
(dp1686
sVdiaact
p1687
Vrequest
p1688
sVinform_slots
p1689
(dp1690
Vfood
p1691
Vfrench
p1692
sVdate
p1693
Vtomorrow night
p1694
sVnumberofpeople
p1695
I1
sVpricerange
p1696
Vdontcare
p1697
sVcity
p1698
VLondon
p1699
ssa(dp1700
Vrequest_slots
p1701
(dp1702
Vpricerange
p1703
VUKN
p1704
sVaddr
p1705
VUKN
p1706
ssVdiaact
p1707
Vrequest
p1708
sVinform_slots
p1709
(dp1710
Vfood
p1711
Vindian
p1712
sVcity
p1713
VMumbai
p1714
sVnumberofpeople
p1715
I2
sVdate
p1716
Vtonight
p1717
ssa(dp1718
Vrequest_slots
p1719
(dp1720
Vdate
p1721
VUKN
p1722
sVpricerange
p1723
VUKN
p1724
sVaddr
p1725
VUKN
p1726
ssVdiaact
p1727
Vrequest
p1728
sVinform_slots
p1729
(dp1730
Vfood
p1731
Veuropean
p1732
sVcity
p1733
VLisbon
p1734
sVnumberofpeople
p1735
I8
ssa(dp1736
Vrequest_slots
p1737
(dp1738
Vfood
p1739
VUKN
p1740
sVdate
p1741
VUKN
p1742
sVaddr
p1743
VUKN
p1744
ssVdiaact
p1745
Vrequest
p1746
sVinform_slots
p1747
(dp1748
Vcity
p1749
VMumbai
p1750
sVnumberofpeople
p1751
I6
sVpricerange
p1752
Vcheap
p1753
ssa(dp1754
Vrequest_slots
p1755
(dp1756
Vdate
p1757
VUKN
p1758
sVcity
p1759
VUKN
p1760
sVaddr
p1761
VUKN
p1762
ssVdiaact
p1763
Vrequest
p1764
sVinform_slots
p1765
(dp1766
Vfood
p1767
Vgastropub
p1768
sVnumberofpeople
p1769
I4
sVpricerange
p1770
Vdontcare
p1771
ssa(dp1772
Vrequest_slots
p1773
(dp1774
Vcity
p1775
VUKN
p1776
sVaddr
p1777
VUKN
p1778
ssVdiaact
p1779
Vrequest
p1780
sVinform_slots
p1781
(dp1782
Vfood
p1783
Vmodern european
p1784
sVdate
p1785
Vtoday
p1786
sVnumberofpeople
p1787
I6
sVpricerange
p1788
Vmoderate
p1789
ssa(dp1790
Vrequest_slots
p1791
(dp1792
Vdate
p1793
VUKN
p1794
sVcity
p1795
VUKN
p1796
sVaddr
p1797
VUKN
p1798
ssVdiaact
p1799
Vrequest
p1800
sVinform_slots
p1801
(dp1802
Vfood
p1803
Vvietnamese
p1804
sVnumberofpeople
p1805
I1
sVpricerange
p1806
Vdontcare
p1807
ssa(dp1808
Vrequest_slots
p1809
(dp1810
Vfood
p1811
VUKN
p1812
sVdate
p1813
VUKN
p1814
sVaddr
p1815
VUKN
p1816
ssVdiaact
p1817
Vrequest
p1818
sVinform_slots
p1819
(dp1820
Vcity
p1821
VMumbai
p1822
sVnumberofpeople
p1823
I1
sVpricerange
p1824
Vmoderate
p1825
ssa(dp1826
Vrequest_slots
p1827
(dp1828
sVdiaact
p1829
Vrequest
p1830
sVinform_slots
p1831
(dp1832
Vfood
p1833
Vasian oriental
p1834
sVdate
p1835
Vtomorrow night
p1836
sVnumberofpeople
p1837
I2
sVpricerange
p1838
Vmoderate
p1839
sVcity
p1840
VNew York
p1841
ssa(dp1842
Vrequest_slots
p1843
(dp1844
Vdate
p1845
VUKN
p1846
sVpricerange
p1847
VUKN
p1848
sVaddr
p1849
VUKN
p1850
ssVdiaact
p1851
Vrequest
p1852
sVinform_slots
p1853
(dp1854
Vfood
p1855
Vinternational
p1856
sVcity
p1857
VLisbon
p1858
sVnumberofpeople
p1859
I8
ssa(dp1860
Vrequest_slots
p1861
(dp1862
sVdiaact
p1863
Vrequest
p1864
sVinform_slots
p1865
(dp1866
Vfood
p1867
Vinternational
p1868
sVcity
p1869
VLisbon
p1870
sVpricerange
p1871
Vcheap
p1872
sVnumberofpeople
p1873
I8
sVdate
p1874
Vsunday
p1875
ssa(dp1876
Vrequest_slots
p1877
(dp1878
Vdate
p1879
VUKN
p1880
sVcity
p1881
VUKN
p1882
sVaddr
p1883
VUKN
p1884
ssVdiaact
p1885
Vrequest
p1886
sVinform_slots
p1887
(dp1888
Vfood
p1889
Vmediterranean
p1890
sVnumberofpeople
p1891
I1
sVpricerange
p1892
Vcheap
p1893
ssa(dp1894
Vrequest_slots
p1895
(dp1896
Vfood
p1897
VUKN
p1898
sVaddr
p1899
VUKN
p1900
ssVdiaact
p1901
Vrequest
p1902
sVinform_slots
p1903
(dp1904
Vdate
p1905
Vtonight
p1906
sVcity
p1907
VTokyo
p1908
sVnumberofpeople
p1909
I6
sVpricerange
p1910
Vcheap
p1911
ssa(dp1912
Vrequest_slots
p1913
(dp1914
Vdate
p1915
VUKN
p1916
sVcity
p1917
VUKN
p1918
sVaddr
p1919
VUKN
p1920
ssVdiaact
p1921
Vrequest
p1922
sVinform_slots
p1923
(dp1924
Vfood
p1925
Vthai
p1926
sVnumberofpeople
p1927
I8
sVpricerange
p1928
Vdontcare
p1929
ssa(dp1930
Vrequest_slots
p1931
(dp1932
Vcity
p1933
VUKN
p1934
sVaddr
p1935
VUKN
p1936
ssVdiaact
p1937
Vrequest
p1938
sVinform_slots
p1939
(dp1940
Vfood
p1941
Vportuguese
p1942
sVdate
p1943
Vtomorrow night
p1944
sVnumberofpeople
p1945
I4
sVpricerange
p1946
Vdontcare
p1947
ssa(dp1948
Vrequest_slots
p1949
(dp1950
Vcity
p1951
VUKN
p1952
sVaddr
p1953
VUKN
p1954
ssVdiaact
p1955
Vrequest
p1956
sVinform_slots
p1957
(dp1958
Vfood
p1959
Vasian oriental
p1960
sVdate
p1961
Vtoday
p1962
sVnumberofpeople
p1963
I8
sVpricerange
p1964
Vexpensive
p1965
ssa(dp1966
Vrequest_slots
p1967
(dp1968
Vpricerange
p1969
VUKN
p1970
sVaddr
p1971
VUKN
p1972
ssVdiaact
p1973
Vrequest
p1974
sVinform_slots
p1975
(dp1976
Vfood
p1977
Vitalian
p1978
sVcity
p1979
VParis
p1980
sVnumberofpeople
p1981
I6
sVdate
p1982
Vtomorrow night
p1983
ssa(dp1984
Vrequest_slots
p1985
(dp1986
sVdiaact
p1987
Vrequest
p1988
sVinform_slots
p1989
(dp1990
Vfood
p1991
Vitalian
p1992
sVcity
p1993
VParis
p1994
sVpricerange
p1995
Vcheap
p1996
sVnumberofpeople
p1997
I6
sVdate
p1998
Vtomorrow night
p1999
ssa(dp2000
Vrequest_slots
p2001
(dp2002
Vdate
p2003
VUKN
p2004
sVcity
p2005
VUKN
p2006
sVaddr
p2007
VUKN
p2008
ssVdiaact
p2009
Vrequest
p2010
sVinform_slots
p2011
(dp2012
Vfood
p2013
Vasian oriental
p2014
sVnumberofpeople
p2015
I6
sVpricerange
p2016
Vdontcare
p2017
ssa(dp2018
Vrequest_slots
p2019
(dp2020
Vfood
p2021
VUKN
p2022
sVaddr
p2023
VUKN
p2024
ssVdiaact
p2025
Vrequest
p2026
sVinform_slots
p2027
(dp2028
Vdate
p2029
Vtoday
p2030
sVcity
p2031
VMumbai
p2032
sVnumberofpeople
p2033
I1
sVpricerange
p2034
Vcheap
p2035
ssa(dp2036
Vrequest_slots
p2037
(dp2038
Vpricerange
p2039
VUKN
p2040
sVaddr
p2041
VUKN
p2042
ssVdiaact
p2043
Vrequest
p2044
sVinform_slots
p2045
(dp2046
Vfood
p2047
Vindian
p2048
sVcity
p2049
VLondon
p2050
sVnumberofpeople
p2051
I6
sVdate
p2052
Vtoday
p2053
ssa(dp2054
Vrequest_slots
p2055
(dp2056
Vcity
p2057
VUKN
p2058
sVaddr
p2059
VUKN
p2060
ssVdiaact
p2061
Vrequest
p2062
sVinform_slots
p2063
(dp2064
Vfood
p2065
Vturkish
p2066
sVdate
p2067
Vtomorrow night
p2068
sVnumberofpeople
p2069
I8
sVpricerange
p2070
Vmoderate
p2071
ssa(dp2072
Vrequest_slots
p2073
(dp2074
Vfood
p2075
VUKN
p2076
sVdate
p2077
VUKN
p2078
sVaddr
p2079
VUKN
p2080
ssVdiaact
p2081
Vrequest
p2082
sVinform_slots
p2083
(dp2084
Vcity
p2085
VParis
p2086
sVnumberofpeople
p2087
I6
sVpricerange
p2088
Vmoderate
p2089
ssa.