(lp1
(dp2
S'request_slots'
p3
(dp4
sS'diaact'
p5
Vrequest
p6
sS'inform_slots'
p7
(dp8
Vcity
p9
Vbirmingham
p10
sVnumberofpeople
p11
V1
sVtheater
p12
Vcarmike summit 16
p13
sVstarttime
p14
Varound 2pm
p15
sVdate
p16
Vtoday
p17
sVmoviename
p18
Vzootopia
p19
ssa(dp20
g3
(dp21
sg5
g6
sg7
(dp22
Vcity
p23
Vseattle
p24
sVnumberofpeople
p25
V2
sVtheater
p26
Vamc pacific place 11 theater
p27
sVstarttime
p28
V9:00 pm
p29
sVdate
p30
Vtomorrow
p31
sVmoviename
p32
Vdeadpool
p33
ssa(dp34
g3
(dp35
sg5
g6
sg7
(dp36
Vcity
p37
Vbirmingham
p38
sg11
V4
sVtheater
p39
Vcarmike summit 16
p40
sVstarttime
p41
Varound 6pm
p42
sVdate
p43
Vtoday
p44
sVmoviename
p45
Vdeadpool
p46
ssa(dp47
g3
(dp48
sg5
g6
sg7
(dp49
Vcity
p50
Vseattle
p51
sVnumberofpeople
p52
V2
sVtheater
p53
Vregal meridian 16
p54
sVstarttime
p55
V9:10 pm
p56
sVdate
p57
Vtomorrow
p58
sVmoviename
p59
Vzootopia
p60
ssa(dp61
g3
(dp62
sg5
g6
sg7
(dp63
Vcity
p64
Vseattle
p65
sVnumberofpeople
p66
V2
sVtheater
p67
Vregal meridian 16
p68
sVstarttime
p69
V8:45 pm
p70
sVdate
p71
Vtomorrow
p72
sVmoviename
p73
Vhail caesar
p74
ssa(dp75
g3
(dp76
Vdate
p77
VUNK
p78
sVtheater
p79
g78
sVstarttime
p80
g78
ssg5
g6
sg7
(dp81
Vcity
p82
Vportland
p83
sg11
V5
sVmoviename
p84
Vstar wars
p85
ssa(dp86
g3
(dp87
sg5
g6
sg7
(dp88
Vcity
p89
Vseattle
p90
sVnumberofpeople
p91
V2
sVtheater
p92
Vamc pacific place 11 theater
p93
sVstarttime
p94
V9:30 pm
p95
sVdate
p96
Vtomorrow
p97
sVmoviename
p98
Vroom
p99
ssa(dp100
g3
(dp101
sg5
g6
sg7
(dp102
Vcity
p103
Vseattle
p104
sVnumberofpeople
p105
V2
sVtheater
p106
Vregal meridian 16
p107
sVstarttime
p108
V9:30 pm
p109
sVdate
p110
Vtomorrow
p111
sVmoviename
p112
Vthe witch
p113
ssa(dp114
g3
(dp115
sg5
g6
sg7
(dp116
Vcity
p117
Vseattle
p118
sVnumberofpeople
p119
V2
sVtheater
p120
Vregal meridian 16
p121
sVstarttime
p122
V9:30 pm
p123
sVdate
p124
Vtomorrow
p125
sVmoviename
p126
Vthe witch
p127
ssa(dp128
g3
(dp129
sg5
g6
sg7
(dp130
Vcity
p131
Vseattle
p132
sVnumberofpeople
p133
V6
sVtheater
p134
Vamc lowes oak tree
p135
sVstarttime
p136
V7:10 pm
p137
sVdate
p138
Vtomorrow
p139
sVmoviename
p140
Vtriple 9
p141
ssa(dp142
g3
(dp143
sg5
g6
sg7
(dp144
Vcity
p145
Vseattle
p146
sVnumberofpeople
p147
V2
sVtheater
p148
Vregal meridian 16
p149
sVstarttime
p150
V9:10 pm
p151
sVdate
p152
Vtomorrow
p153
sVmoviename
p154
Vzootopia
p155
ssa(dp156
g3
(dp157
g79
g78
ssg5
g6
sg7
(dp158
Vdate
p159
Vtoday
p160
sVcity
p161
Vbirmingham
p162
sVnumberofpeople
p163
V2
sVmoviename
p164
Vdeadpool
p165
sVstarttime
p166
V4 pm
p167
ssa(dp168
g3
(dp169
sg5
g6
sg7
(dp170
Vcity
p171
Vseattle
p172
sVnumberofpeople
p173
V2
sVtheater
p174
Vregal meridian 16
p175
sVstarttime
p176
V8:45 pm
p177
sVdate
p178
Vtomorrow
p179
sVmoviename
p180
Vthe big short
p181
ssa(dp182
g3
(dp183
sg5
g6
sg7
(dp184
Vcity
p185
Vseattle
p186
sVnumberofpeople
p187
V2
sVtheater
p188
Vregal meridian 16
p189
sVstarttime
p190
V8:45 pm
p191
sVdate
p192
Vtomorrow
p193
sVmoviename
p194
Vthe big short
p195
ssa(dp196
g3
(dp197
sg5
g6
sg7
(dp198
Vcity
p199
Vseattle
p200
sVnumberofpeople
p201
V2
sVtheater
p202
Vregal meridian 16
p203
sVstarttime
p204
V9:10 pm
p205
sVdate
p206
Vtomorrow
p207
sVmoviename
p208
Vzootopia
p209
ssa(dp210
g3
(dp211
g77
g78
sg79
g78
ssg5
g6
sg7
(dp212
Vcity
p213
Vstony brook
p214
sg11
V1
sVmoviename
p215
V Young Messiah
p216
sVstarttime
p217
V Matinee
p218
ssa(dp219
g3
(dp220
g77
g78
sg79
g78
sg80
g78
ssg5
g6
sg7
(dp221
Vcity
p222
VPetaluma
p223
sVnumberofpeople
p224
V4
sVmoviename
p225
Veddie the eagle
p226
ssa(dp227
g3
(dp228
Vstarttime
p229
g78
ssg5
g6
sg7
(dp230
Vdate
p231
Vtomorrow
p232
sVtheater
p233
Vregency commerce 14
p234
sg11
V3
sVmoviename
p235
Vrisen
p236
ssa(dp237
g3
(dp238
sg5
g6
sg7
(dp239
Vcity
p240
Vseattle
p241
sVnumberofpeople
p242
V2
sVtheater
p243
Vregal meridian 16
p244
sVstarttime
p245
V9:25 pm
p246
sVdate
p247
Vtomorrow
p248
sVmoviename
p249
Vzoolander 2
p250
ssa(dp251
g3
(dp252
sg5
g6
sg7
(dp253
Vcity
p254
Vseattle
p255
sVnumberofpeople
p256
V2
sVtheater
p257
Vamc pacific place 11 theater
p258
sVstarttime
p259
V9:00 pm
p260
sVdate
p261
Vtomorrow
p262
sVmoviename
p263
Vdeadpool
p264
ssa(dp265
g3
(dp266
g79
g78
ssg5
g6
sg7
(dp267
Vdate
p268
Vsaturday
p269
sg11
V1
sVmoviename
p270
Vzootopia
p271
sVstarttime
p272
Varound 2pm
p273
ssa(dp274
g3
(dp275
sg5
g6
sg7
(dp276
Vcity
p277
Vseattle
p278
sVnumberofpeople
p279
V2
sVtheater
p280
Vregal meridian 16
p281
sVstarttime
p282
V9:30 pm
p283
sVdate
p284
Vtomorrow
p285
sVmoviename
p286
Vthe witch
p287
ssa(dp288
g3
(dp289
g77
g78
sg79
g78
sg80
g78
ssg5
g6
sg7
(dp290
Vnumberofpeople
p291
V4
sVmoviename
p292
Vzootopia
p293
ssa(dp294
g3
(dp295
g77
g78
sg79
g78
sg80
g78
ssg5
g6
sg7
(dp296
g11
V4
sVmoviename
p297
VAvengers
p298
ssa(dp299
g3
(dp300
g77
g78
sg79
g78
sg80
g78
ssg5
g6
sg7
(dp301
g11
V3
sVmoviename
p302
Vzoology
p303
ssa(dp304
g3
(dp305
sg5
g6
sg7
(dp306
Vcity
p307
Vseattle
p308
sVnumberofpeople
p309
V2
sVtheater
p310
Vamc lowes oak tree 6
p311
sVstarttime
p312
V4:50 pm
p313
sVdate
p314
Vtomorrow
p315
sVmoviename
p316
Vrace
p317
ssa(dp318
g3
(dp319
g77
g78
sg79
g78
sVstarttime
p320
g78
ssg5
g6
sg7
(dp321
g11
V3
sVmoviename
p322
Vdeadpool
p323
ssa(dp324
g3
(dp325
sg5
g6
sg7
(dp326
Vcity
p327
Vseattle
p328
sVnumberofpeople
p329
V2
sVtheater
p330
Vamc lowes oak tree 6
p331
sVstarttime
p332
V7:15 pm
p333
sVdate
p334
Vtomorrow
p335
sVmoviename
p336
Vhail caesar
p337
ssa(dp338
g3
(dp339
g79
g78
ssg5
g6
sg7
(dp340
Vdate
p341
Vtoday
p342
sVcity
p343
Vbirmingham
p344
sVnumberofpeople
p345
V2
sVmoviename
p346
Vzootopia
p347
sVstarttime
p348
Varound 4pm
p349
ssa(dp350
g3
(dp351
Vtheater
p352
g78
ssg5
g6
sg7
(dp353
Vdate
p354
Vtomorrow
p355
sg11
V5
sVmoviename
p356
Vzootopia
p357
sVstarttime
p358
Vnight
p359
ssa(dp360
g3
(dp361
sg5
g6
sg7
(dp362
Vcity
p363
Vseattle
p364
sVnumberofpeople
p365
V2
sVtheater
p366
Vregal meridian 16
p367
sVstarttime
p368
V9:25 pm
p369
sVdate
p370
Vtomorrow
p371
sVmoviename
p372
Vzoolander 2
p373
ssa(dp374
g3
(dp375
Vtheater
p376
g78
sg80
g78
ssg5
g6
sg7
(dp377
Vdate
p378
Vtonight
p379
sg11
V1
sVmoviename
p380
Vzootopia
p381
ssa(dp382
g3
(dp383
sg5
g6
sg7
(dp384
Vcity
p385
Vbirmingham
p386
sg11
V3
sVtheater
p387
Vcarmike summit 16
p388
sVstarttime
p389
V2pm
p390
sVdate
p391
Vsaturday
p392
sVmoviename
p393
Vdeadpool
p394
ssa(dp395
g3
(dp396
g80
g78
ssg5
g6
sg7
(dp397
Vdate
p398
Vtomorrow
p399
sVtheater
p400
Vregal theater
p401
sg11
V4
sVmoviename
p402
Vgods of egypt
p403
sVcity
p404
Vsacramento
p405
ssa(dp406
g3
(dp407
g79
g78
sg80
g78
ssg5
g6
sg7
(dp408
Vdate
p409
Vtomorrow
p410
sg11
V3
sVmoviename
p411
V10 cloverfield lane
p412
ssa(dp413
g3
(dp414
g77
g78
sVtheater
p415
g78
sg80
g78
ssg5
g6
sg7
(dp416
g11
V2
sVmoviename
p417
Vzootopia
p418
ssa(dp419
g3
(dp420
sg5
g6
sg7
(dp421
Vcity
p422
Vseattle
p423
sVnumberofpeople
p424
V2
sVtheater
p425
Vregal meridian 16
p426
sVstarttime
p427
V9:25 pm
p428
sVdate
p429
Vtomorrow
p430
sVmoviename
p431
Vzoolander 2
p432
ssa(dp433
g3
(dp434
Vstarttime
p435
g78
ssg5
g6
sg7
(dp436
Vdate
p437
Vtomorrow
p438
sVtheater
p439
Vregency commerce 14
p440
sg11
V2
sVmoviename
p441
Vrisen
p442
ssa(dp443
g3
(dp444
g79
g78
sg80
g78
ssg5
g6
sg7
(dp445
Vdate
p446
Vthis friday
p447
sg11
V4
sVmoviename
p448
Vstar wars
p449
ssa(dp450
g3
(dp451
g77
g78
sg79
g78
sg80
g78
ssg5
g6
sg7
(dp452
Vcity
p453
Vportland
p454
sg11
V3
sVmoviename
p455
Vzootopia
p456
ssa(dp457
g3
(dp458
g79
g78
sg80
g78
ssg5
g6
sg7
(dp459
Vdate
p460
Vtonight
p461
sg11
V5
sVmoviename
p462
Vzootopia
p463
ssa(dp464
g3
(dp465
g77
g78
sg79
g78
sg80
g78
ssg5
g6
sg7
(dp466
Vcity
p467
Vportland
p468
sg11
V5
sVmoviename
p469
Vstar wars
p470
ssa(dp471
g3
(dp472
sg5
g6
sg7
(dp473
Vcity
p474
Vseattle
p475
sVnumberofpeople
p476
V2
sVtheater
p477
Vregal meridian 16
p478
sVstarttime
p479
V9:10 pm
p480
sVdate
p481
Vtomorrow
p482
sVmoviename
p483
Vzootopia
p484
ssa(dp485
g3
(dp486
g79
g78
sg80
g78
ssg5
g6
sg7
(dp487
Vdate
p488
Vtonight
p489
sg11
V1
sVmoviename
p490
Vzootopia
p491
ssa(dp492
g3
(dp493
sg5
g6
sg7
(dp494
Vcity
p495
Vseattle
p496
sVnumberofpeople
p497
V2
sVtheater
p498
Vregal meridian 16
p499
sVstarttime
p500
V8:45 pm
p501
sVdate
p502
Vtomorrow
p503
sVmoviename
p504
Vhail caesar
p505
ssa(dp506
g3
(dp507
g77
g78
sVtheater
p508
g78
sg80
g78
ssg5
g6
sg7
(dp509
g11
V4
sVmoviename
p510
Vkung fu panda 3
p511
ssa(dp512
g3
(dp513
sg5
g6
sg7
(dp514
Vcity
p515
Vseattle
p516
sVnumberofpeople
p517
V2
sVtheater
p518
Vregal meridian 16
p519
sVstarttime
p520
V8:45 pm
p521
sVdate
p522
Vtomorrow
p523
sVmoviename
p524
Vhail caesar
p525
ssa(dp526
g3
(dp527
g77
g78
sg79
g78
sg80
g78
ssg5
g6
sg7
(dp528
Vnumberofpeople
p529
Vtwo
p530
sVmoviename
p531
Vlondon has fallen
p532
ssa(dp533
g3
(dp534
sg5
g6
sg7
(dp535
Vcity
p536
Vseattle
p537
sVnumberofpeople
p538
V2
sVtheater
p539
Vregal meridian 16
p540
sVstarttime
p541
V9:10 pm
p542
sVdate
p543
Vtomorrow
p544
sVmoviename
p545
Vzootopia
p546
ssa(dp547
g3
(dp548
g79
g78
sg80
g78
ssg5
g6
sg7
(dp549
Vdate
p550
Vtomorrow night
p551
sVcity
p552
Vseattle
p553
sVnumberofpeople
p554
Vone
p555
sVmoviename
p556
Vzootopia
p557
ssa(dp558
g3
(dp559
g77
g78
sVtheater
p560
g78
sg80
g78
ssg5
g6
sg7
(dp561
g11
V2
sVmoviename
p562
Vfirst
p563
ssa(dp564
g3
(dp565
g79
g78
ssg5
g6
sg7
(dp566
Vdate
p567
Vsaturday
p568
sg11
V4
sVmoviename
p569
Vzootopia
p570
sVstarttime
p571
Varound 2pm
p572
ssa(dp573
g3
(dp574
Vtheater
p575
g78
sg80
g78
ssg5
g6
sg7
(dp576
Vdate
p577
Vtonight
p578
sg11
V3
sVmoviename
p579
Vzootopia
p580
ssa(dp581
g3
(dp582
g77
g78
sg79
g78
sg80
g78
ssg5
g6
sg7
(dp583
g11
V3
sVmoviename
p584
Vwhiskey tango foxtrot
p585
ssa(dp586
g3
(dp587
Vtheater
p588
g78
sg80
g78
ssg5
g6
sg7
(dp589
Vdate
p590
Vtomorrow night
p591
sg11
V5
sVmoviename
p592
Vzootopia
p593
ssa(dp594
g3
(dp595
g77
g78
sVtheater
p596
g78
sg80
g78
ssg5
g6
sg7
(dp597
g11
V1
sVmoviename
p598
Vkung fu panda 3
p599
ssa(dp600
g3
(dp601
g77
g78
sg79
g78
sVstarttime
p602
g78
ssg5
g6
sg7
(dp603
g11
V5
sVmoviename
p604
Vlondon has fallen
p605
ssa(dp606
g3
(dp607
g77
g78
sg79
g78
sg80
g78
ssg5
g6
sg7
(dp608
Vcity
p609
Vportland
p610
sg11
V4
sVmoviename
p611
Vwhiskey tango foxtrot
p612
ssa(dp613
g3
(dp614
g77
g78
sg79
g78
sg80
g78
ssg5
g6
sg7
(dp615
g11
V5
sVmoviename
p616
Vdeadpool
p617
ssa(dp618
g3
(dp619
sg5
g6
sg7
(dp620
Vcity
p621
Vseattle
p622
sVnumberofpeople
p623
V2
sVtheater
p624
Vamc lowes oak tree 6
p625
sVstarttime
p626
V4:25 pm
p627
sVdate
p628
Vtomorrow
p629
sVmoviename
p630
Vrisen
p631
ssa.